Archive member included because of file (symbol)

C:/Freescale_BM_USB_Stack_v5.0/Src/output/twrk70f120m.gcc_arm/debug/usbh/bm/usbh.a(adapter_bm.o)
                              C:/Freescale_BM_USB_Stack_v5.0/Src/example/host/hid/mouse/bm/make/host_hid_mouse_twrk70f120m/gcc_arm/MK70FN1M0_HOST_Flash_debug/obj/hidmouse.o (OS_Event_create)
C:/Freescale_BM_USB_Stack_v5.0/Src/output/twrk70f120m.gcc_arm/debug/usbh/bm/usbh.a(usb_host.o)
                              C:/Freescale_BM_USB_Stack_v5.0/Src/example/host/hid/mouse/bm/make/host_hid_mouse_twrk70f120m/gcc_arm/MK70FN1M0_HOST_Flash_debug/obj/hidmouse.o (usb_host_init)
C:/Freescale_BM_USB_Stack_v5.0/Src/output/twrk70f120m.gcc_arm/debug/usbh/bm/usbh.a(usb_host_bsp.o)
                              C:/Freescale_BM_USB_Stack_v5.0/Src/output/twrk70f120m.gcc_arm/debug/usbh/bm/usbh.a(usb_host.o) (bsp_usb_host_init)
C:/Freescale_BM_USB_Stack_v5.0/Src/output/twrk70f120m.gcc_arm/debug/usbh/bm/usbh.a(usb_host_ch9.o)
                              C:/Freescale_BM_USB_Stack_v5.0/Src/output/twrk70f120m.gcc_arm/debug/usbh/bm/usbh.a(usb_host.o) (_usb_host_ch9_set_interface)
C:/Freescale_BM_USB_Stack_v5.0/Src/output/twrk70f120m.gcc_arm/debug/usbh/bm/usbh.a(usb_host_common.o)
                              C:/Freescale_BM_USB_Stack_v5.0/Src/output/twrk70f120m.gcc_arm/debug/usbh/bm/usbh.a(usb_host.o) (usb_hostdev_validate)
C:/Freescale_BM_USB_Stack_v5.0/Src/output/twrk70f120m.gcc_arm/debug/usbh/bm/usbh.a(usb_host_dev_mng.o)
                              C:/Freescale_BM_USB_Stack_v5.0/Src/output/twrk70f120m.gcc_arm/debug/usbh/bm/usbh.a(usb_host.o) (usb_host_dev_mng_get_host)
C:/Freescale_BM_USB_Stack_v5.0/Src/output/twrk70f120m.gcc_arm/debug/usbh/bm/usbh.a(usb_host_hid.o)
                              C:/Freescale_BM_USB_Stack_v5.0/Src/example/host/hid/mouse/bm/make/host_hid_mouse_twrk70f120m/gcc_arm/MK70FN1M0_HOST_Flash_debug/obj/hidmouse.o (usb_class_hid_recv_data)
C:/Freescale_BM_USB_Stack_v5.0/Src/output/twrk70f120m.gcc_arm/debug/usbh/bm/usbh.a(usb_host_hub_sm.o)
                              C:/Freescale_BM_USB_Stack_v5.0/Src/example/host/hid/mouse/bm/make/host_hid_mouse_twrk70f120m/gcc_arm/MK70FN1M0_HOST_Flash_debug/obj/hidmouse.o (usb_host_hub_device_event)
C:/Freescale_BM_USB_Stack_v5.0/Src/output/twrk70f120m.gcc_arm/debug/usbh/bm/usbh.a(ehci_host.o)
                              C:/Freescale_BM_USB_Stack_v5.0/Src/output/twrk70f120m.gcc_arm/debug/usbh/bm/usbh.a(usb_host.o) (_usb_ehci_host_api_table)
C:/Freescale_BM_USB_Stack_v5.0/Src/output/twrk70f120m.gcc_arm/debug/usbh/bm/usbh.a(khci.o)
                              C:/Freescale_BM_USB_Stack_v5.0/Src/output/twrk70f120m.gcc_arm/debug/usbh/bm/usbh.a(usb_host.o) (_usb_khci_host_api_table)
C:/Freescale_BM_USB_Stack_v5.0/Src/output/twrk70f120m.gcc_arm/debug/usbh/bm/usbh.a(usb_classes.o)
                              C:/Freescale_BM_USB_Stack_v5.0/Src/output/twrk70f120m.gcc_arm/debug/usbh/bm/usbh.a(usb_host_common.o) (class_interface_map)
C:/Freescale_BM_USB_Stack_v5.0/Src/output/twrk70f120m.gcc_arm/debug/usbh/bm/usbh.a(usb_host_audio_intf.o)
                              C:/Freescale_BM_USB_Stack_v5.0/Src/output/twrk70f120m.gcc_arm/debug/usbh/bm/usbh.a(usb_classes.o) (usb_class_audio_control_init)
C:/Freescale_BM_USB_Stack_v5.0/Src/output/twrk70f120m.gcc_arm/debug/usbh/bm/usbh.a(usb_host_cdc_intf.o)
                              C:/Freescale_BM_USB_Stack_v5.0/Src/output/twrk70f120m.gcc_arm/debug/usbh/bm/usbh.a(usb_classes.o) (usb_class_cdc_acm_init)
C:/Freescale_BM_USB_Stack_v5.0/Src/output/twrk70f120m.gcc_arm/debug/usbh/bm/usbh.a(usb_host_hub.o)
                              C:/Freescale_BM_USB_Stack_v5.0/Src/output/twrk70f120m.gcc_arm/debug/usbh/bm/usbh.a(usb_classes.o) (usb_class_hub_init)
C:/Freescale_BM_USB_Stack_v5.0/Src/output/twrk70f120m.gcc_arm/debug/usbh/bm/usbh.a(usb_host_msd_bo.o)
                              C:/Freescale_BM_USB_Stack_v5.0/Src/output/twrk70f120m.gcc_arm/debug/usbh/bm/usbh.a(usb_classes.o) (usb_class_mass_init)
C:/Freescale_BM_USB_Stack_v5.0/Src/output/twrk70f120m.gcc_arm/debug/usbh/bm/usbh.a(usb_host_msd_queue.o)
                              C:/Freescale_BM_USB_Stack_v5.0/Src/output/twrk70f120m.gcc_arm/debug/usbh/bm/usbh.a(usb_host_msd_bo.o) (usb_class_mass_q_init)
C:/Freescale_BM_USB_Stack_v5.0/Src/output/twrk70f120m.gcc_arm/debug/usbh/bm/usbh.a(usb_host_phdc.o)
                              C:/Freescale_BM_USB_Stack_v5.0/Src/output/twrk70f120m.gcc_arm/debug/usbh/bm/usbh.a(usb_classes.o) (usb_class_phdc_init)
C:/FREESC~1/CWMCUV~1.7/CROSS_~1/ARM-NO~1/arm-none-eabi/lib/armv7e-m/softfp/libc.a(lib_a-malloc.o)
                              C:/Freescale_BM_USB_Stack_v5.0/Src/example/host/hid/mouse/bm/make/host_hid_mouse_twrk70f120m/gcc_arm/MK70FN1M0_HOST_Flash_debug/obj/bmmsgq.o (malloc)
C:/FREESC~1/CWMCUV~1.7/CROSS_~1/ARM-NO~1/arm-none-eabi/lib/armv7e-m/softfp/libc.a(lib_a-mallocr.o)
                              C:/FREESC~1/CWMCUV~1.7/CROSS_~1/ARM-NO~1/arm-none-eabi/lib/armv7e-m/softfp/libc.a(lib_a-malloc.o) (_malloc_r)
C:/FREESC~1/CWMCUV~1.7/CROSS_~1/ARM-NO~1/arm-none-eabi/lib/armv7e-m/softfp/libc.a(lib_a-memcpy.o)
                              C:/Freescale_BM_USB_Stack_v5.0/Src/example/host/hid/mouse/bm/make/host_hid_mouse_twrk70f120m/gcc_arm/MK70FN1M0_HOST_Flash_debug/obj/rtc_kinetis.o (memcpy)
C:/FREESC~1/CWMCUV~1.7/CROSS_~1/ARM-NO~1/arm-none-eabi/lib/armv7e-m/softfp/libc.a(lib_a-memset.o)
                              C:/Freescale_BM_USB_Stack_v5.0/Src/example/host/hid/mouse/bm/make/host_hid_mouse_twrk70f120m/gcc_arm/MK70FN1M0_HOST_Flash_debug/obj/hidmouse.o (memset)
C:/FREESC~1/CWMCUV~1.7/CROSS_~1/ARM-NO~1/arm-none-eabi/lib/armv7e-m/softfp/libc.a(lib_a-mlock.o)
                              C:/FREESC~1/CWMCUV~1.7/CROSS_~1/ARM-NO~1/arm-none-eabi/lib/armv7e-m/softfp/libc.a(lib_a-mallocr.o) (__malloc_lock)
C:/FREESC~1/CWMCUV~1.7/CROSS_~1/ARM-NO~1/arm-none-eabi/lib/armv7e-m/softfp/libc.a(lib_a-sbrkr.o)
                              C:/FREESC~1/CWMCUV~1.7/CROSS_~1/ARM-NO~1/arm-none-eabi/lib/armv7e-m/softfp/libc.a(lib_a-mallocr.o) (_sbrk_r)
C:/FREESC~1/CWMCUV~1.7/CROSS_~1/ARM-NO~1/arm-none-eabi/lib/armv7e-m/softfp/libc.a(lib_a-strlen.o)
                              C:/Freescale_BM_USB_Stack_v5.0/Src/example/host/hid/mouse/bm/make/host_hid_mouse_twrk70f120m/gcc_arm/MK70FN1M0_HOST_Flash_debug/obj/printf.o (strlen)
C:/FREESC~1/CWMCUV~1.7/CROSS_~1/ARM-NO~1/arm-none-eabi/lib/armv7e-m/softfp/libc.a(lib_a-strncmp.o)
                              C:/Freescale_BM_USB_Stack_v5.0/Src/output/twrk70f120m.gcc_arm/debug/usbh/bm/usbh.a(usb_host_phdc.o) (strncmp)
C:/FREESC~1/CWMCUV~1.7/CROSS_~1/ARM-NO~1/arm-none-eabi/lib/armv7e-m/softfp/libc.a(lib_a-freer.o)
                              C:/FREESC~1/CWMCUV~1.7/CROSS_~1/ARM-NO~1/arm-none-eabi/lib/armv7e-m/softfp/libc.a(lib_a-malloc.o) (_free_r)
C:/FREESC~1/CWMCUV~1.7/CROSS_~1/ARM-NO~1/arm-none-eabi/lib/armv7e-m/softfp/libc.a(lib_a-impure.o)
                              C:/FREESC~1/CWMCUV~1.7/CROSS_~1/ARM-NO~1/arm-none-eabi/lib/armv7e-m/softfp/libc.a(lib_a-malloc.o) (_impure_ptr)
C:/FREESC~1/CWMCUV~1.7/CROSS_~1/ARM-NO~1/arm-none-eabi/lib/armv7e-m/softfp/libc.a(lib_a-reent.o)
                              C:/FREESC~1/CWMCUV~1.7/CROSS_~1/ARM-NO~1/arm-none-eabi/lib/armv7e-m/softfp/libc.a(lib_a-sbrkr.o) (errno)
C:/FREESC~1/CWMCUV~1.7/CROSS_~1/ARM-NO~1/arm-none-eabi/lib/armv7e-m/softfp/libnosys.a(sbrk.o)
                              C:/FREESC~1/CWMCUV~1.7/CROSS_~1/ARM-NO~1/arm-none-eabi/lib/armv7e-m/softfp/libc.a(lib_a-sbrkr.o) (_sbrk)

Allocating common symbols
Common symbol       size              file

task_id             0x4               C:/Freescale_BM_USB_Stack_v5.0/Src/output/twrk70f120m.gcc_arm/debug/usbh/bm/usbh.a(khci.o)
ms_count            0x4               C:/Freescale_BM_USB_Stack_v5.0/Src/example/host/hid/mouse/bm/make/host_hid_mouse_twrk70f120m/gcc_arm/MK70FN1M0_HOST_Flash_debug/obj/rtc_kinetis.o
errno               0x4               C:/FREESC~1/CWMCUV~1.7/CROSS_~1/ARM-NO~1/arm-none-eabi/lib/armv7e-m/softfp/libc.a(lib_a-reent.o)
delay_count         0x4               C:/Freescale_BM_USB_Stack_v5.0/Src/example/host/hid/mouse/bm/make/host_hid_mouse_twrk70f120m/gcc_arm/MK70FN1M0_HOST_Flash_debug/obj/pit_delay.o
registered_function
                    0x28              C:/Freescale_BM_USB_Stack_v5.0/Src/output/twrk70f120m.gcc_arm/debug/usbh/bm/usbh.a(adapter_bm.o)
g_TimerObjectArray  0x8               C:/Freescale_BM_USB_Stack_v5.0/Src/example/host/hid/mouse/bm/make/host_hid_mouse_twrk70f120m/gcc_arm/MK70FN1M0_HOST_Flash_debug/obj/rtc_kinetis.o
kbi_stat            0x1               C:/Freescale_BM_USB_Stack_v5.0/Src/example/host/hid/mouse/bm/make/host_hid_mouse_twrk70f120m/gcc_arm/MK70FN1M0_HOST_Flash_debug/obj/main_kinetis.o
usb_host_global_handler
                    0x4               C:/Freescale_BM_USB_Stack_v5.0/Src/output/twrk70f120m.gcc_arm/debug/usbh/bm/usbh.a(khci.o)
g_poll              0x2c              C:/Freescale_BM_USB_Stack_v5.0/Src/example/host/hid/mouse/bm/make/host_hid_mouse_twrk70f120m/gcc_arm/MK70FN1M0_HOST_Flash_debug/obj/poll.o
mouse_interface_info
                    0x10              C:/Freescale_BM_USB_Stack_v5.0/Src/example/host/hid/mouse/bm/make/host_hid_mouse_twrk70f120m/gcc_arm/MK70FN1M0_HOST_Flash_debug/obj/hidmouse.o
pin                 0x4               C:/Freescale_BM_USB_Stack_v5.0/Src/output/twrk70f120m.gcc_arm/debug/usbh/bm/usbh.a(khci.o)
g_usb_lock_level    0x4               C:/Freescale_BM_USB_Stack_v5.0/Src/example/host/hid/mouse/bm/make/host_hid_mouse_twrk70f120m/gcc_arm/MK70FN1M0_HOST_Flash_debug/obj/nvic.o
ehci_host_task_id   0x4               C:/Freescale_BM_USB_Stack_v5.0/Src/output/twrk70f120m.gcc_arm/debug/usbh/bm/usbh.a(ehci_host.o)

Discarded input sections

 .text          0x00000000        0x0 C:/Freescale_BM_USB_Stack_v5.0/Src/example/host/hid/mouse/bm/make/host_hid_mouse_twrk70f120m/gcc_arm/MK70FN1M0_HOST_Flash_debug/obj/bmevent.o
 .data          0x00000000        0x0 C:/Freescale_BM_USB_Stack_v5.0/Src/example/host/hid/mouse/bm/make/host_hid_mouse_twrk70f120m/gcc_arm/MK70FN1M0_HOST_Flash_debug/obj/bmevent.o
 .bss           0x00000000        0x0 C:/Freescale_BM_USB_Stack_v5.0/Src/example/host/hid/mouse/bm/make/host_hid_mouse_twrk70f120m/gcc_arm/MK70FN1M0_HOST_Flash_debug/obj/bmevent.o
 .text          0x00000000        0x0 C:/Freescale_BM_USB_Stack_v5.0/Src/example/host/hid/mouse/bm/make/host_hid_mouse_twrk70f120m/gcc_arm/MK70FN1M0_HOST_Flash_debug/obj/bmisr.o
 .data          0x00000000        0x0 C:/Freescale_BM_USB_Stack_v5.0/Src/example/host/hid/mouse/bm/make/host_hid_mouse_twrk70f120m/gcc_arm/MK70FN1M0_HOST_Flash_debug/obj/bmisr.o
 .bss           0x00000000        0x0 C:/Freescale_BM_USB_Stack_v5.0/Src/example/host/hid/mouse/bm/make/host_hid_mouse_twrk70f120m/gcc_arm/MK70FN1M0_HOST_Flash_debug/obj/bmisr.o
 .rodata.__g_regs_GPIO_base_addresses
                0x00000000       0x18 C:/Freescale_BM_USB_Stack_v5.0/Src/example/host/hid/mouse/bm/make/host_hid_mouse_twrk70f120m/gcc_arm/MK70FN1M0_HOST_Flash_debug/obj/bmisr.o
 .rodata.__g_regs_PORT_base_addresses
                0x00000000       0x18 C:/Freescale_BM_USB_Stack_v5.0/Src/example/host/hid/mouse/bm/make/host_hid_mouse_twrk70f120m/gcc_arm/MK70FN1M0_HOST_Flash_debug/obj/bmisr.o
 .rodata.__g_regs_UART_base_addresses
                0x00000000       0x18 C:/Freescale_BM_USB_Stack_v5.0/Src/example/host/hid/mouse/bm/make/host_hid_mouse_twrk70f120m/gcc_arm/MK70FN1M0_HOST_Flash_debug/obj/bmisr.o
 .rodata.__g_regs_I2C_base_addresses
                0x00000000        0x8 C:/Freescale_BM_USB_Stack_v5.0/Src/example/host/hid/mouse/bm/make/host_hid_mouse_twrk70f120m/gcc_arm/MK70FN1M0_HOST_Flash_debug/obj/bmisr.o
 .rodata.__g_regs_I2S_base_addresses
                0x00000000        0x8 C:/Freescale_BM_USB_Stack_v5.0/Src/example/host/hid/mouse/bm/make/host_hid_mouse_twrk70f120m/gcc_arm/MK70FN1M0_HOST_Flash_debug/obj/bmisr.o
 .text          0x00000000        0x0 C:/Freescale_BM_USB_Stack_v5.0/Src/example/host/hid/mouse/bm/make/host_hid_mouse_twrk70f120m/gcc_arm/MK70FN1M0_HOST_Flash_debug/obj/bmmsgq.o
 .data          0x00000000        0x0 C:/Freescale_BM_USB_Stack_v5.0/Src/example/host/hid/mouse/bm/make/host_hid_mouse_twrk70f120m/gcc_arm/MK70FN1M0_HOST_Flash_debug/obj/bmmsgq.o
 .bss           0x00000000        0x0 C:/Freescale_BM_USB_Stack_v5.0/Src/example/host/hid/mouse/bm/make/host_hid_mouse_twrk70f120m/gcc_arm/MK70FN1M0_HOST_Flash_debug/obj/bmmsgq.o
 .rodata.__g_regs_GPIO_base_addresses
                0x00000000       0x18 C:/Freescale_BM_USB_Stack_v5.0/Src/example/host/hid/mouse/bm/make/host_hid_mouse_twrk70f120m/gcc_arm/MK70FN1M0_HOST_Flash_debug/obj/bmmsgq.o
 .rodata.__g_regs_PORT_base_addresses
                0x00000000       0x18 C:/Freescale_BM_USB_Stack_v5.0/Src/example/host/hid/mouse/bm/make/host_hid_mouse_twrk70f120m/gcc_arm/MK70FN1M0_HOST_Flash_debug/obj/bmmsgq.o
 .rodata.__g_regs_UART_base_addresses
                0x00000000       0x18 C:/Freescale_BM_USB_Stack_v5.0/Src/example/host/hid/mouse/bm/make/host_hid_mouse_twrk70f120m/gcc_arm/MK70FN1M0_HOST_Flash_debug/obj/bmmsgq.o
 .rodata.__g_regs_I2C_base_addresses
                0x00000000        0x8 C:/Freescale_BM_USB_Stack_v5.0/Src/example/host/hid/mouse/bm/make/host_hid_mouse_twrk70f120m/gcc_arm/MK70FN1M0_HOST_Flash_debug/obj/bmmsgq.o
 .rodata.__g_regs_I2S_base_addresses
                0x00000000        0x8 C:/Freescale_BM_USB_Stack_v5.0/Src/example/host/hid/mouse/bm/make/host_hid_mouse_twrk70f120m/gcc_arm/MK70FN1M0_HOST_Flash_debug/obj/bmmsgq.o
 .text          0x00000000        0x0 C:/Freescale_BM_USB_Stack_v5.0/Src/example/host/hid/mouse/bm/make/host_hid_mouse_twrk70f120m/gcc_arm/MK70FN1M0_HOST_Flash_debug/obj/bmsem.o
 .data          0x00000000        0x0 C:/Freescale_BM_USB_Stack_v5.0/Src/example/host/hid/mouse/bm/make/host_hid_mouse_twrk70f120m/gcc_arm/MK70FN1M0_HOST_Flash_debug/obj/bmsem.o
 .bss           0x00000000        0x0 C:/Freescale_BM_USB_Stack_v5.0/Src/example/host/hid/mouse/bm/make/host_hid_mouse_twrk70f120m/gcc_arm/MK70FN1M0_HOST_Flash_debug/obj/bmsem.o
 .text._bm_sem_wait
                0x00000000       0x34 C:/Freescale_BM_USB_Stack_v5.0/Src/example/host/hid/mouse/bm/make/host_hid_mouse_twrk70f120m/gcc_arm/MK70FN1M0_HOST_Flash_debug/obj/bmsem.o
 .text._bm_sem_destroy
                0x00000000       0x34 C:/Freescale_BM_USB_Stack_v5.0/Src/example/host/hid/mouse/bm/make/host_hid_mouse_twrk70f120m/gcc_arm/MK70FN1M0_HOST_Flash_debug/obj/bmsem.o
 .text          0x00000000        0x0 C:/Freescale_BM_USB_Stack_v5.0/Src/example/host/hid/mouse/bm/make/host_hid_mouse_twrk70f120m/gcc_arm/MK70FN1M0_HOST_Flash_debug/obj/hidmouse.o
 .data          0x00000000        0x0 C:/Freescale_BM_USB_Stack_v5.0/Src/example/host/hid/mouse/bm/make/host_hid_mouse_twrk70f120m/gcc_arm/MK70FN1M0_HOST_Flash_debug/obj/hidmouse.o
 .bss           0x00000000        0x0 C:/Freescale_BM_USB_Stack_v5.0/Src/example/host/hid/mouse/bm/make/host_hid_mouse_twrk70f120m/gcc_arm/MK70FN1M0_HOST_Flash_debug/obj/hidmouse.o
 .rodata.__g_regs_GPIO_base_addresses
                0x00000000       0x18 C:/Freescale_BM_USB_Stack_v5.0/Src/example/host/hid/mouse/bm/make/host_hid_mouse_twrk70f120m/gcc_arm/MK70FN1M0_HOST_Flash_debug/obj/hidmouse.o
 .rodata.__g_regs_PORT_base_addresses
                0x00000000       0x18 C:/Freescale_BM_USB_Stack_v5.0/Src/example/host/hid/mouse/bm/make/host_hid_mouse_twrk70f120m/gcc_arm/MK70FN1M0_HOST_Flash_debug/obj/hidmouse.o
 .rodata.__g_regs_UART_base_addresses
                0x00000000       0x18 C:/Freescale_BM_USB_Stack_v5.0/Src/example/host/hid/mouse/bm/make/host_hid_mouse_twrk70f120m/gcc_arm/MK70FN1M0_HOST_Flash_debug/obj/hidmouse.o
 .rodata.__g_regs_I2C_base_addresses
                0x00000000        0x8 C:/Freescale_BM_USB_Stack_v5.0/Src/example/host/hid/mouse/bm/make/host_hid_mouse_twrk70f120m/gcc_arm/MK70FN1M0_HOST_Flash_debug/obj/hidmouse.o
 .rodata.__g_regs_I2S_base_addresses
                0x00000000        0x8 C:/Freescale_BM_USB_Stack_v5.0/Src/example/host/hid/mouse/bm/make/host_hid_mouse_twrk70f120m/gcc_arm/MK70FN1M0_HOST_Flash_debug/obj/hidmouse.o
 .text          0x00000000        0x0 C:/Freescale_BM_USB_Stack_v5.0/Src/example/host/hid/mouse/bm/make/host_hid_mouse_twrk70f120m/gcc_arm/MK70FN1M0_HOST_Flash_debug/obj/init_gpio.o
 .data          0x00000000        0x0 C:/Freescale_BM_USB_Stack_v5.0/Src/example/host/hid/mouse/bm/make/host_hid_mouse_twrk70f120m/gcc_arm/MK70FN1M0_HOST_Flash_debug/obj/init_gpio.o
 .bss           0x00000000        0x0 C:/Freescale_BM_USB_Stack_v5.0/Src/example/host/hid/mouse/bm/make/host_hid_mouse_twrk70f120m/gcc_arm/MK70FN1M0_HOST_Flash_debug/obj/init_gpio.o
 .rodata.__g_regs_GPIO_base_addresses
                0x00000000       0x18 C:/Freescale_BM_USB_Stack_v5.0/Src/example/host/hid/mouse/bm/make/host_hid_mouse_twrk70f120m/gcc_arm/MK70FN1M0_HOST_Flash_debug/obj/init_gpio.o
 .rodata.__g_regs_UART_base_addresses
                0x00000000       0x18 C:/Freescale_BM_USB_Stack_v5.0/Src/example/host/hid/mouse/bm/make/host_hid_mouse_twrk70f120m/gcc_arm/MK70FN1M0_HOST_Flash_debug/obj/init_gpio.o
 .rodata.__g_regs_I2C_base_addresses
                0x00000000        0x8 C:/Freescale_BM_USB_Stack_v5.0/Src/example/host/hid/mouse/bm/make/host_hid_mouse_twrk70f120m/gcc_arm/MK70FN1M0_HOST_Flash_debug/obj/init_gpio.o
 .rodata.__g_regs_I2S_base_addresses
                0x00000000        0x8 C:/Freescale_BM_USB_Stack_v5.0/Src/example/host/hid/mouse/bm/make/host_hid_mouse_twrk70f120m/gcc_arm/MK70FN1M0_HOST_Flash_debug/obj/init_gpio.o
 .text          0x00000000        0x0 C:/Freescale_BM_USB_Stack_v5.0/Src/example/host/hid/mouse/bm/make/host_hid_mouse_twrk70f120m/gcc_arm/MK70FN1M0_HOST_Flash_debug/obj/main_kinetis.o
 .data          0x00000000        0x0 C:/Freescale_BM_USB_Stack_v5.0/Src/example/host/hid/mouse/bm/make/host_hid_mouse_twrk70f120m/gcc_arm/MK70FN1M0_HOST_Flash_debug/obj/main_kinetis.o
 .bss           0x00000000        0x0 C:/Freescale_BM_USB_Stack_v5.0/Src/example/host/hid/mouse/bm/make/host_hid_mouse_twrk70f120m/gcc_arm/MK70FN1M0_HOST_Flash_debug/obj/main_kinetis.o
 .rodata.__g_regs_GPIO_base_addresses
                0x00000000       0x18 C:/Freescale_BM_USB_Stack_v5.0/Src/example/host/hid/mouse/bm/make/host_hid_mouse_twrk70f120m/gcc_arm/MK70FN1M0_HOST_Flash_debug/obj/main_kinetis.o
 .rodata.__g_regs_PORT_base_addresses
                0x00000000       0x18 C:/Freescale_BM_USB_Stack_v5.0/Src/example/host/hid/mouse/bm/make/host_hid_mouse_twrk70f120m/gcc_arm/MK70FN1M0_HOST_Flash_debug/obj/main_kinetis.o
 .rodata.__g_regs_UART_base_addresses
                0x00000000       0x18 C:/Freescale_BM_USB_Stack_v5.0/Src/example/host/hid/mouse/bm/make/host_hid_mouse_twrk70f120m/gcc_arm/MK70FN1M0_HOST_Flash_debug/obj/main_kinetis.o
 .rodata.__g_regs_I2C_base_addresses
                0x00000000        0x8 C:/Freescale_BM_USB_Stack_v5.0/Src/example/host/hid/mouse/bm/make/host_hid_mouse_twrk70f120m/gcc_arm/MK70FN1M0_HOST_Flash_debug/obj/main_kinetis.o
 .rodata.__g_regs_I2S_base_addresses
                0x00000000        0x8 C:/Freescale_BM_USB_Stack_v5.0/Src/example/host/hid/mouse/bm/make/host_hid_mouse_twrk70f120m/gcc_arm/MK70FN1M0_HOST_Flash_debug/obj/main_kinetis.o
 COMMON         0x00000000        0x1 C:/Freescale_BM_USB_Stack_v5.0/Src/example/host/hid/mouse/bm/make/host_hid_mouse_twrk70f120m/gcc_arm/MK70FN1M0_HOST_Flash_debug/obj/main_kinetis.o
 .text          0x00000000        0x0 C:/Freescale_BM_USB_Stack_v5.0/Src/example/host/hid/mouse/bm/make/host_hid_mouse_twrk70f120m/gcc_arm/MK70FN1M0_HOST_Flash_debug/obj/mem_util.o
 .data          0x00000000        0x0 C:/Freescale_BM_USB_Stack_v5.0/Src/example/host/hid/mouse/bm/make/host_hid_mouse_twrk70f120m/gcc_arm/MK70FN1M0_HOST_Flash_debug/obj/mem_util.o
 .bss           0x00000000        0x0 C:/Freescale_BM_USB_Stack_v5.0/Src/example/host/hid/mouse/bm/make/host_hid_mouse_twrk70f120m/gcc_arm/MK70FN1M0_HOST_Flash_debug/obj/mem_util.o
 .rodata.__g_regs_GPIO_base_addresses
                0x00000000       0x18 C:/Freescale_BM_USB_Stack_v5.0/Src/example/host/hid/mouse/bm/make/host_hid_mouse_twrk70f120m/gcc_arm/MK70FN1M0_HOST_Flash_debug/obj/mem_util.o
 .rodata.__g_regs_PORT_base_addresses
                0x00000000       0x18 C:/Freescale_BM_USB_Stack_v5.0/Src/example/host/hid/mouse/bm/make/host_hid_mouse_twrk70f120m/gcc_arm/MK70FN1M0_HOST_Flash_debug/obj/mem_util.o
 .rodata.__g_regs_UART_base_addresses
                0x00000000       0x18 C:/Freescale_BM_USB_Stack_v5.0/Src/example/host/hid/mouse/bm/make/host_hid_mouse_twrk70f120m/gcc_arm/MK70FN1M0_HOST_Flash_debug/obj/mem_util.o
 .rodata.__g_regs_I2C_base_addresses
                0x00000000        0x8 C:/Freescale_BM_USB_Stack_v5.0/Src/example/host/hid/mouse/bm/make/host_hid_mouse_twrk70f120m/gcc_arm/MK70FN1M0_HOST_Flash_debug/obj/mem_util.o
 .rodata.__g_regs_I2S_base_addresses
                0x00000000        0x8 C:/Freescale_BM_USB_Stack_v5.0/Src/example/host/hid/mouse/bm/make/host_hid_mouse_twrk70f120m/gcc_arm/MK70FN1M0_HOST_Flash_debug/obj/mem_util.o
 .text          0x00000000        0x0 C:/Freescale_BM_USB_Stack_v5.0/Src/example/host/hid/mouse/bm/make/host_hid_mouse_twrk70f120m/gcc_arm/MK70FN1M0_HOST_Flash_debug/obj/nvic.o
 .data          0x00000000        0x0 C:/Freescale_BM_USB_Stack_v5.0/Src/example/host/hid/mouse/bm/make/host_hid_mouse_twrk70f120m/gcc_arm/MK70FN1M0_HOST_Flash_debug/obj/nvic.o
 .bss           0x00000000        0x0 C:/Freescale_BM_USB_Stack_v5.0/Src/example/host/hid/mouse/bm/make/host_hid_mouse_twrk70f120m/gcc_arm/MK70FN1M0_HOST_Flash_debug/obj/nvic.o
 .rodata.__g_regs_GPIO_base_addresses
                0x00000000       0x18 C:/Freescale_BM_USB_Stack_v5.0/Src/example/host/hid/mouse/bm/make/host_hid_mouse_twrk70f120m/gcc_arm/MK70FN1M0_HOST_Flash_debug/obj/nvic.o
 .rodata.__g_regs_PORT_base_addresses
                0x00000000       0x18 C:/Freescale_BM_USB_Stack_v5.0/Src/example/host/hid/mouse/bm/make/host_hid_mouse_twrk70f120m/gcc_arm/MK70FN1M0_HOST_Flash_debug/obj/nvic.o
 .rodata.__g_regs_UART_base_addresses
                0x00000000       0x18 C:/Freescale_BM_USB_Stack_v5.0/Src/example/host/hid/mouse/bm/make/host_hid_mouse_twrk70f120m/gcc_arm/MK70FN1M0_HOST_Flash_debug/obj/nvic.o
 .rodata.__g_regs_I2C_base_addresses
                0x00000000        0x8 C:/Freescale_BM_USB_Stack_v5.0/Src/example/host/hid/mouse/bm/make/host_hid_mouse_twrk70f120m/gcc_arm/MK70FN1M0_HOST_Flash_debug/obj/nvic.o
 .rodata.__g_regs_I2S_base_addresses
                0x00000000        0x8 C:/Freescale_BM_USB_Stack_v5.0/Src/example/host/hid/mouse/bm/make/host_hid_mouse_twrk70f120m/gcc_arm/MK70FN1M0_HOST_Flash_debug/obj/nvic.o
 .text          0x00000000        0x0 C:/Freescale_BM_USB_Stack_v5.0/Src/example/host/hid/mouse/bm/make/host_hid_mouse_twrk70f120m/gcc_arm/MK70FN1M0_HOST_Flash_debug/obj/pit_delay.o
 .data          0x00000000        0x0 C:/Freescale_BM_USB_Stack_v5.0/Src/example/host/hid/mouse/bm/make/host_hid_mouse_twrk70f120m/gcc_arm/MK70FN1M0_HOST_Flash_debug/obj/pit_delay.o
 .bss           0x00000000        0x0 C:/Freescale_BM_USB_Stack_v5.0/Src/example/host/hid/mouse/bm/make/host_hid_mouse_twrk70f120m/gcc_arm/MK70FN1M0_HOST_Flash_debug/obj/pit_delay.o
 .rodata.__g_regs_GPIO_base_addresses
                0x00000000       0x18 C:/Freescale_BM_USB_Stack_v5.0/Src/example/host/hid/mouse/bm/make/host_hid_mouse_twrk70f120m/gcc_arm/MK70FN1M0_HOST_Flash_debug/obj/pit_delay.o
 .rodata.__g_regs_PORT_base_addresses
                0x00000000       0x18 C:/Freescale_BM_USB_Stack_v5.0/Src/example/host/hid/mouse/bm/make/host_hid_mouse_twrk70f120m/gcc_arm/MK70FN1M0_HOST_Flash_debug/obj/pit_delay.o
 .rodata.__g_regs_UART_base_addresses
                0x00000000       0x18 C:/Freescale_BM_USB_Stack_v5.0/Src/example/host/hid/mouse/bm/make/host_hid_mouse_twrk70f120m/gcc_arm/MK70FN1M0_HOST_Flash_debug/obj/pit_delay.o
 .rodata.__g_regs_I2C_base_addresses
                0x00000000        0x8 C:/Freescale_BM_USB_Stack_v5.0/Src/example/host/hid/mouse/bm/make/host_hid_mouse_twrk70f120m/gcc_arm/MK70FN1M0_HOST_Flash_debug/obj/pit_delay.o
 .rodata.__g_regs_I2S_base_addresses
                0x00000000        0x8 C:/Freescale_BM_USB_Stack_v5.0/Src/example/host/hid/mouse/bm/make/host_hid_mouse_twrk70f120m/gcc_arm/MK70FN1M0_HOST_Flash_debug/obj/pit_delay.o
 .text          0x00000000        0x0 C:/Freescale_BM_USB_Stack_v5.0/Src/example/host/hid/mouse/bm/make/host_hid_mouse_twrk70f120m/gcc_arm/MK70FN1M0_HOST_Flash_debug/obj/poll.o
 .data          0x00000000        0x0 C:/Freescale_BM_USB_Stack_v5.0/Src/example/host/hid/mouse/bm/make/host_hid_mouse_twrk70f120m/gcc_arm/MK70FN1M0_HOST_Flash_debug/obj/poll.o
 .bss           0x00000000        0x0 C:/Freescale_BM_USB_Stack_v5.0/Src/example/host/hid/mouse/bm/make/host_hid_mouse_twrk70f120m/gcc_arm/MK70FN1M0_HOST_Flash_debug/obj/poll.o
 .text          0x00000000        0x0 C:/Freescale_BM_USB_Stack_v5.0/Src/example/host/hid/mouse/bm/make/host_hid_mouse_twrk70f120m/gcc_arm/MK70FN1M0_HOST_Flash_debug/obj/printf.o
 .data          0x00000000        0x0 C:/Freescale_BM_USB_Stack_v5.0/Src/example/host/hid/mouse/bm/make/host_hid_mouse_twrk70f120m/gcc_arm/MK70FN1M0_HOST_Flash_debug/obj/printf.o
 .bss           0x00000000        0x0 C:/Freescale_BM_USB_Stack_v5.0/Src/example/host/hid/mouse/bm/make/host_hid_mouse_twrk70f120m/gcc_arm/MK70FN1M0_HOST_Flash_debug/obj/printf.o
 .text.sprintf_kinetis
                0x00000000       0x50 C:/Freescale_BM_USB_Stack_v5.0/Src/example/host/hid/mouse/bm/make/host_hid_mouse_twrk70f120m/gcc_arm/MK70FN1M0_HOST_Flash_debug/obj/printf.o
 .text          0x00000000        0x0 C:/Freescale_BM_USB_Stack_v5.0/Src/example/host/hid/mouse/bm/make/host_hid_mouse_twrk70f120m/gcc_arm/MK70FN1M0_HOST_Flash_debug/obj/rtc_kinetis.o
 .data          0x00000000        0x0 C:/Freescale_BM_USB_Stack_v5.0/Src/example/host/hid/mouse/bm/make/host_hid_mouse_twrk70f120m/gcc_arm/MK70FN1M0_HOST_Flash_debug/obj/rtc_kinetis.o
 .bss           0x00000000        0x0 C:/Freescale_BM_USB_Stack_v5.0/Src/example/host/hid/mouse/bm/make/host_hid_mouse_twrk70f120m/gcc_arm/MK70FN1M0_HOST_Flash_debug/obj/rtc_kinetis.o
 .rodata.__g_regs_GPIO_base_addresses
                0x00000000       0x18 C:/Freescale_BM_USB_Stack_v5.0/Src/example/host/hid/mouse/bm/make/host_hid_mouse_twrk70f120m/gcc_arm/MK70FN1M0_HOST_Flash_debug/obj/rtc_kinetis.o
 .rodata.__g_regs_PORT_base_addresses
                0x00000000       0x18 C:/Freescale_BM_USB_Stack_v5.0/Src/example/host/hid/mouse/bm/make/host_hid_mouse_twrk70f120m/gcc_arm/MK70FN1M0_HOST_Flash_debug/obj/rtc_kinetis.o
 .rodata.__g_regs_UART_base_addresses
                0x00000000       0x18 C:/Freescale_BM_USB_Stack_v5.0/Src/example/host/hid/mouse/bm/make/host_hid_mouse_twrk70f120m/gcc_arm/MK70FN1M0_HOST_Flash_debug/obj/rtc_kinetis.o
 .rodata.__g_regs_I2C_base_addresses
                0x00000000        0x8 C:/Freescale_BM_USB_Stack_v5.0/Src/example/host/hid/mouse/bm/make/host_hid_mouse_twrk70f120m/gcc_arm/MK70FN1M0_HOST_Flash_debug/obj/rtc_kinetis.o
 .rodata.__g_regs_I2S_base_addresses
                0x00000000        0x8 C:/Freescale_BM_USB_Stack_v5.0/Src/example/host/hid/mouse/bm/make/host_hid_mouse_twrk70f120m/gcc_arm/MK70FN1M0_HOST_Flash_debug/obj/rtc_kinetis.o
 .text.AddTimerQ
                0x00000000       0xd4 C:/Freescale_BM_USB_Stack_v5.0/Src/example/host/hid/mouse/bm/make/host_hid_mouse_twrk70f120m/gcc_arm/MK70FN1M0_HOST_Flash_debug/obj/rtc_kinetis.o
 .text.RemoveTimerQ
                0x00000000       0x5c C:/Freescale_BM_USB_Stack_v5.0/Src/example/host/hid/mouse/bm/make/host_hid_mouse_twrk70f120m/gcc_arm/MK70FN1M0_HOST_Flash_debug/obj/rtc_kinetis.o
 .text          0x00000000        0x0 C:/Freescale_BM_USB_Stack_v5.0/Src/example/host/hid/mouse/bm/make/host_hid_mouse_twrk70f120m/gcc_arm/MK70FN1M0_HOST_Flash_debug/obj/sci.o
 .data          0x00000000        0x0 C:/Freescale_BM_USB_Stack_v5.0/Src/example/host/hid/mouse/bm/make/host_hid_mouse_twrk70f120m/gcc_arm/MK70FN1M0_HOST_Flash_debug/obj/sci.o
 .bss           0x00000000        0x0 C:/Freescale_BM_USB_Stack_v5.0/Src/example/host/hid/mouse/bm/make/host_hid_mouse_twrk70f120m/gcc_arm/MK70FN1M0_HOST_Flash_debug/obj/sci.o
 .rodata.__g_regs_GPIO_base_addresses
                0x00000000       0x18 C:/Freescale_BM_USB_Stack_v5.0/Src/example/host/hid/mouse/bm/make/host_hid_mouse_twrk70f120m/gcc_arm/MK70FN1M0_HOST_Flash_debug/obj/sci.o
 .rodata.__g_regs_PORT_base_addresses
                0x00000000       0x18 C:/Freescale_BM_USB_Stack_v5.0/Src/example/host/hid/mouse/bm/make/host_hid_mouse_twrk70f120m/gcc_arm/MK70FN1M0_HOST_Flash_debug/obj/sci.o
 .rodata.__g_regs_UART_base_addresses
                0x00000000       0x18 C:/Freescale_BM_USB_Stack_v5.0/Src/example/host/hid/mouse/bm/make/host_hid_mouse_twrk70f120m/gcc_arm/MK70FN1M0_HOST_Flash_debug/obj/sci.o
 .rodata.__g_regs_I2C_base_addresses
                0x00000000        0x8 C:/Freescale_BM_USB_Stack_v5.0/Src/example/host/hid/mouse/bm/make/host_hid_mouse_twrk70f120m/gcc_arm/MK70FN1M0_HOST_Flash_debug/obj/sci.o
 .rodata.__g_regs_I2S_base_addresses
                0x00000000        0x8 C:/Freescale_BM_USB_Stack_v5.0/Src/example/host/hid/mouse/bm/make/host_hid_mouse_twrk70f120m/gcc_arm/MK70FN1M0_HOST_Flash_debug/obj/sci.o
 .text.uart_getchar
                0x00000000       0x34 C:/Freescale_BM_USB_Stack_v5.0/Src/example/host/hid/mouse/bm/make/host_hid_mouse_twrk70f120m/gcc_arm/MK70FN1M0_HOST_Flash_debug/obj/sci.o
 .text.uart_getchar_no_block
                0x00000000       0x48 C:/Freescale_BM_USB_Stack_v5.0/Src/example/host/hid/mouse/bm/make/host_hid_mouse_twrk70f120m/gcc_arm/MK70FN1M0_HOST_Flash_debug/obj/sci.o
 .text.uart_sendchar_no_block
                0x00000000       0x44 C:/Freescale_BM_USB_Stack_v5.0/Src/example/host/hid/mouse/bm/make/host_hid_mouse_twrk70f120m/gcc_arm/MK70FN1M0_HOST_Flash_debug/obj/sci.o
 .text          0x00000000        0x0 C:/Freescale_BM_USB_Stack_v5.0/Src/example/host/hid/mouse/bm/make/host_hid_mouse_twrk70f120m/gcc_arm/MK70FN1M0_HOST_Flash_debug/obj/soc_init.o
 .data          0x00000000        0x0 C:/Freescale_BM_USB_Stack_v5.0/Src/example/host/hid/mouse/bm/make/host_hid_mouse_twrk70f120m/gcc_arm/MK70FN1M0_HOST_Flash_debug/obj/soc_init.o
 .bss           0x00000000        0x0 C:/Freescale_BM_USB_Stack_v5.0/Src/example/host/hid/mouse/bm/make/host_hid_mouse_twrk70f120m/gcc_arm/MK70FN1M0_HOST_Flash_debug/obj/soc_init.o
 .rodata.__g_regs_GPIO_base_addresses
                0x00000000       0x18 C:/Freescale_BM_USB_Stack_v5.0/Src/example/host/hid/mouse/bm/make/host_hid_mouse_twrk70f120m/gcc_arm/MK70FN1M0_HOST_Flash_debug/obj/soc_init.o
 .rodata.__g_regs_UART_base_addresses
                0x00000000       0x18 C:/Freescale_BM_USB_Stack_v5.0/Src/example/host/hid/mouse/bm/make/host_hid_mouse_twrk70f120m/gcc_arm/MK70FN1M0_HOST_Flash_debug/obj/soc_init.o
 .rodata.__g_regs_I2C_base_addresses
                0x00000000        0x8 C:/Freescale_BM_USB_Stack_v5.0/Src/example/host/hid/mouse/bm/make/host_hid_mouse_twrk70f120m/gcc_arm/MK70FN1M0_HOST_Flash_debug/obj/soc_init.o
 .rodata.__g_regs_I2S_base_addresses
                0x00000000        0x8 C:/Freescale_BM_USB_Stack_v5.0/Src/example/host/hid/mouse/bm/make/host_hid_mouse_twrk70f120m/gcc_arm/MK70FN1M0_HOST_Flash_debug/obj/soc_init.o
 .text          0x00000000        0x0 C:/Freescale_BM_USB_Stack_v5.0/Src/example/host/hid/mouse/bm/make/host_hid_mouse_twrk70f120m/gcc_arm/MK70FN1M0_HOST_Flash_debug/obj/soc_isr.o
 .data          0x00000000        0x0 C:/Freescale_BM_USB_Stack_v5.0/Src/example/host/hid/mouse/bm/make/host_hid_mouse_twrk70f120m/gcc_arm/MK70FN1M0_HOST_Flash_debug/obj/soc_isr.o
 .bss           0x00000000        0x0 C:/Freescale_BM_USB_Stack_v5.0/Src/example/host/hid/mouse/bm/make/host_hid_mouse_twrk70f120m/gcc_arm/MK70FN1M0_HOST_Flash_debug/obj/soc_isr.o
 .rodata.__g_regs_GPIO_base_addresses
                0x00000000       0x18 C:/Freescale_BM_USB_Stack_v5.0/Src/example/host/hid/mouse/bm/make/host_hid_mouse_twrk70f120m/gcc_arm/MK70FN1M0_HOST_Flash_debug/obj/soc_isr.o
 .rodata.__g_regs_PORT_base_addresses
                0x00000000       0x18 C:/Freescale_BM_USB_Stack_v5.0/Src/example/host/hid/mouse/bm/make/host_hid_mouse_twrk70f120m/gcc_arm/MK70FN1M0_HOST_Flash_debug/obj/soc_isr.o
 .rodata.__g_regs_UART_base_addresses
                0x00000000       0x18 C:/Freescale_BM_USB_Stack_v5.0/Src/example/host/hid/mouse/bm/make/host_hid_mouse_twrk70f120m/gcc_arm/MK70FN1M0_HOST_Flash_debug/obj/soc_isr.o
 .rodata.__g_regs_I2C_base_addresses
                0x00000000        0x8 C:/Freescale_BM_USB_Stack_v5.0/Src/example/host/hid/mouse/bm/make/host_hid_mouse_twrk70f120m/gcc_arm/MK70FN1M0_HOST_Flash_debug/obj/soc_isr.o
 .rodata.__g_regs_I2S_base_addresses
                0x00000000        0x8 C:/Freescale_BM_USB_Stack_v5.0/Src/example/host/hid/mouse/bm/make/host_hid_mouse_twrk70f120m/gcc_arm/MK70FN1M0_HOST_Flash_debug/obj/soc_isr.o
 .text          0x00000000        0x0 C:/Freescale_BM_USB_Stack_v5.0/Src/example/host/hid/mouse/bm/make/host_hid_mouse_twrk70f120m/gcc_arm/MK70FN1M0_HOST_Flash_debug/obj/soc_pit.o
 .data          0x00000000        0x0 C:/Freescale_BM_USB_Stack_v5.0/Src/example/host/hid/mouse/bm/make/host_hid_mouse_twrk70f120m/gcc_arm/MK70FN1M0_HOST_Flash_debug/obj/soc_pit.o
 .bss           0x00000000        0x0 C:/Freescale_BM_USB_Stack_v5.0/Src/example/host/hid/mouse/bm/make/host_hid_mouse_twrk70f120m/gcc_arm/MK70FN1M0_HOST_Flash_debug/obj/soc_pit.o
 .rodata.__g_regs_GPIO_base_addresses
                0x00000000       0x18 C:/Freescale_BM_USB_Stack_v5.0/Src/example/host/hid/mouse/bm/make/host_hid_mouse_twrk70f120m/gcc_arm/MK70FN1M0_HOST_Flash_debug/obj/soc_pit.o
 .rodata.__g_regs_PORT_base_addresses
                0x00000000       0x18 C:/Freescale_BM_USB_Stack_v5.0/Src/example/host/hid/mouse/bm/make/host_hid_mouse_twrk70f120m/gcc_arm/MK70FN1M0_HOST_Flash_debug/obj/soc_pit.o
 .rodata.__g_regs_UART_base_addresses
                0x00000000       0x18 C:/Freescale_BM_USB_Stack_v5.0/Src/example/host/hid/mouse/bm/make/host_hid_mouse_twrk70f120m/gcc_arm/MK70FN1M0_HOST_Flash_debug/obj/soc_pit.o
 .rodata.__g_regs_I2C_base_addresses
                0x00000000        0x8 C:/Freescale_BM_USB_Stack_v5.0/Src/example/host/hid/mouse/bm/make/host_hid_mouse_twrk70f120m/gcc_arm/MK70FN1M0_HOST_Flash_debug/obj/soc_pit.o
 .rodata.__g_regs_I2S_base_addresses
                0x00000000        0x8 C:/Freescale_BM_USB_Stack_v5.0/Src/example/host/hid/mouse/bm/make/host_hid_mouse_twrk70f120m/gcc_arm/MK70FN1M0_HOST_Flash_debug/obj/soc_pit.o
 .data.pit_address
                0x00000000        0x4 C:/Freescale_BM_USB_Stack_v5.0/Src/example/host/hid/mouse/bm/make/host_hid_mouse_twrk70f120m/gcc_arm/MK70FN1M0_HOST_Flash_debug/obj/soc_pit.o
 .text.pit_get_base_address
                0x00000000       0x30 C:/Freescale_BM_USB_Stack_v5.0/Src/example/host/hid/mouse/bm/make/host_hid_mouse_twrk70f120m/gcc_arm/MK70FN1M0_HOST_Flash_debug/obj/soc_pit.o
 .text          0x00000000        0x0 C:/Freescale_BM_USB_Stack_v5.0/Src/example/host/hid/mouse/bm/make/host_hid_mouse_twrk70f120m/gcc_arm/MK70FN1M0_HOST_Flash_debug/obj/soc_sci.o
 .data          0x00000000        0x0 C:/Freescale_BM_USB_Stack_v5.0/Src/example/host/hid/mouse/bm/make/host_hid_mouse_twrk70f120m/gcc_arm/MK70FN1M0_HOST_Flash_debug/obj/soc_sci.o
 .bss           0x00000000        0x0 C:/Freescale_BM_USB_Stack_v5.0/Src/example/host/hid/mouse/bm/make/host_hid_mouse_twrk70f120m/gcc_arm/MK70FN1M0_HOST_Flash_debug/obj/soc_sci.o
 .rodata.__g_regs_GPIO_base_addresses
                0x00000000       0x18 C:/Freescale_BM_USB_Stack_v5.0/Src/example/host/hid/mouse/bm/make/host_hid_mouse_twrk70f120m/gcc_arm/MK70FN1M0_HOST_Flash_debug/obj/soc_sci.o
 .rodata.__g_regs_PORT_base_addresses
                0x00000000       0x18 C:/Freescale_BM_USB_Stack_v5.0/Src/example/host/hid/mouse/bm/make/host_hid_mouse_twrk70f120m/gcc_arm/MK70FN1M0_HOST_Flash_debug/obj/soc_sci.o
 .rodata.__g_regs_UART_base_addresses
                0x00000000       0x18 C:/Freescale_BM_USB_Stack_v5.0/Src/example/host/hid/mouse/bm/make/host_hid_mouse_twrk70f120m/gcc_arm/MK70FN1M0_HOST_Flash_debug/obj/soc_sci.o
 .rodata.__g_regs_I2C_base_addresses
                0x00000000        0x8 C:/Freescale_BM_USB_Stack_v5.0/Src/example/host/hid/mouse/bm/make/host_hid_mouse_twrk70f120m/gcc_arm/MK70FN1M0_HOST_Flash_debug/obj/soc_sci.o
 .rodata.__g_regs_I2S_base_addresses
                0x00000000        0x8 C:/Freescale_BM_USB_Stack_v5.0/Src/example/host/hid/mouse/bm/make/host_hid_mouse_twrk70f120m/gcc_arm/MK70FN1M0_HOST_Flash_debug/obj/soc_sci.o
 .rodata._bsp_sci1_init
                0x00000000       0x20 C:/Freescale_BM_USB_Stack_v5.0/Src/example/host/hid/mouse/bm/make/host_hid_mouse_twrk70f120m/gcc_arm/MK70FN1M0_HOST_Flash_debug/obj/soc_sci.o
 .text.bsp_get_serial_vector
                0x00000000       0x78 C:/Freescale_BM_USB_Stack_v5.0/Src/example/host/hid/mouse/bm/make/host_hid_mouse_twrk70f120m/gcc_arm/MK70FN1M0_HOST_Flash_debug/obj/soc_sci.o
 .text          0x00000000        0x0 C:/Freescale_BM_USB_Stack_v5.0/Src/example/host/hid/mouse/bm/make/host_hid_mouse_twrk70f120m/gcc_arm/MK70FN1M0_HOST_Flash_debug/obj/soc_usb.o
 .data          0x00000000        0x0 C:/Freescale_BM_USB_Stack_v5.0/Src/example/host/hid/mouse/bm/make/host_hid_mouse_twrk70f120m/gcc_arm/MK70FN1M0_HOST_Flash_debug/obj/soc_usb.o
 .bss           0x00000000        0x0 C:/Freescale_BM_USB_Stack_v5.0/Src/example/host/hid/mouse/bm/make/host_hid_mouse_twrk70f120m/gcc_arm/MK70FN1M0_HOST_Flash_debug/obj/soc_usb.o
 .rodata.__g_regs_GPIO_base_addresses
                0x00000000       0x18 C:/Freescale_BM_USB_Stack_v5.0/Src/example/host/hid/mouse/bm/make/host_hid_mouse_twrk70f120m/gcc_arm/MK70FN1M0_HOST_Flash_debug/obj/soc_usb.o
 .rodata.__g_regs_PORT_base_addresses
                0x00000000       0x18 C:/Freescale_BM_USB_Stack_v5.0/Src/example/host/hid/mouse/bm/make/host_hid_mouse_twrk70f120m/gcc_arm/MK70FN1M0_HOST_Flash_debug/obj/soc_usb.o
 .rodata.__g_regs_UART_base_addresses
                0x00000000       0x18 C:/Freescale_BM_USB_Stack_v5.0/Src/example/host/hid/mouse/bm/make/host_hid_mouse_twrk70f120m/gcc_arm/MK70FN1M0_HOST_Flash_debug/obj/soc_usb.o
 .rodata.__g_regs_I2C_base_addresses
                0x00000000        0x8 C:/Freescale_BM_USB_Stack_v5.0/Src/example/host/hid/mouse/bm/make/host_hid_mouse_twrk70f120m/gcc_arm/MK70FN1M0_HOST_Flash_debug/obj/soc_usb.o
 .rodata.__g_regs_I2S_base_addresses
                0x00000000        0x8 C:/Freescale_BM_USB_Stack_v5.0/Src/example/host/hid/mouse/bm/make/host_hid_mouse_twrk70f120m/gcc_arm/MK70FN1M0_HOST_Flash_debug/obj/soc_usb.o
 .text          0x00000000        0x0 C:/Freescale_BM_USB_Stack_v5.0/Src/example/host/hid/mouse/bm/make/host_hid_mouse_twrk70f120m/gcc_arm/MK70FN1M0_HOST_Flash_debug/obj/startup.o
 .data          0x00000000        0x0 C:/Freescale_BM_USB_Stack_v5.0/Src/example/host/hid/mouse/bm/make/host_hid_mouse_twrk70f120m/gcc_arm/MK70FN1M0_HOST_Flash_debug/obj/startup.o
 .bss           0x00000000        0x0 C:/Freescale_BM_USB_Stack_v5.0/Src/example/host/hid/mouse/bm/make/host_hid_mouse_twrk70f120m/gcc_arm/MK70FN1M0_HOST_Flash_debug/obj/startup.o
 .text.toolchain_startup
                0x00000000       0x18 C:/Freescale_BM_USB_Stack_v5.0/Src/example/host/hid/mouse/bm/make/host_hid_mouse_twrk70f120m/gcc_arm/MK70FN1M0_HOST_Flash_debug/obj/startup.o
 .data          0x00000000        0x0 C:/Freescale_BM_USB_Stack_v5.0/Src/example/host/hid/mouse/bm/make/host_hid_mouse_twrk70f120m/gcc_arm/MK70FN1M0_HOST_Flash_debug/obj/startup_MK70FN1M012.o
 .bss           0x00000000        0x0 C:/Freescale_BM_USB_Stack_v5.0/Src/example/host/hid/mouse/bm/make/host_hid_mouse_twrk70f120m/gcc_arm/MK70FN1M0_HOST_Flash_debug/obj/startup_MK70FN1M012.o
 .text          0x00000000        0x0 C:/Freescale_BM_USB_Stack_v5.0/Src/example/host/hid/mouse/bm/make/host_hid_mouse_twrk70f120m/gcc_arm/MK70FN1M0_HOST_Flash_debug/obj/system_MK70FN1M012.o
 .data          0x00000000        0x0 C:/Freescale_BM_USB_Stack_v5.0/Src/example/host/hid/mouse/bm/make/host_hid_mouse_twrk70f120m/gcc_arm/MK70FN1M0_HOST_Flash_debug/obj/system_MK70FN1M012.o
 .bss           0x00000000        0x0 C:/Freescale_BM_USB_Stack_v5.0/Src/example/host/hid/mouse/bm/make/host_hid_mouse_twrk70f120m/gcc_arm/MK70FN1M0_HOST_Flash_debug/obj/system_MK70FN1M012.o
 .rodata.__g_regs_GPIO_base_addresses
                0x00000000       0x18 C:/Freescale_BM_USB_Stack_v5.0/Src/example/host/hid/mouse/bm/make/host_hid_mouse_twrk70f120m/gcc_arm/MK70FN1M0_HOST_Flash_debug/obj/system_MK70FN1M012.o
 .rodata.__g_regs_PORT_base_addresses
                0x00000000       0x18 C:/Freescale_BM_USB_Stack_v5.0/Src/example/host/hid/mouse/bm/make/host_hid_mouse_twrk70f120m/gcc_arm/MK70FN1M0_HOST_Flash_debug/obj/system_MK70FN1M012.o
 .rodata.__g_regs_UART_base_addresses
                0x00000000       0x18 C:/Freescale_BM_USB_Stack_v5.0/Src/example/host/hid/mouse/bm/make/host_hid_mouse_twrk70f120m/gcc_arm/MK70FN1M0_HOST_Flash_debug/obj/system_MK70FN1M012.o
 .rodata.__g_regs_I2C_base_addresses
                0x00000000        0x8 C:/Freescale_BM_USB_Stack_v5.0/Src/example/host/hid/mouse/bm/make/host_hid_mouse_twrk70f120m/gcc_arm/MK70FN1M0_HOST_Flash_debug/obj/system_MK70FN1M012.o
 .rodata.__g_regs_I2S_base_addresses
                0x00000000        0x8 C:/Freescale_BM_USB_Stack_v5.0/Src/example/host/hid/mouse/bm/make/host_hid_mouse_twrk70f120m/gcc_arm/MK70FN1M0_HOST_Flash_debug/obj/system_MK70FN1M012.o
 .text.SystemCoreClockUpdate
                0x00000000        0xc C:/Freescale_BM_USB_Stack_v5.0/Src/example/host/hid/mouse/bm/make/host_hid_mouse_twrk70f120m/gcc_arm/MK70FN1M0_HOST_Flash_debug/obj/system_MK70FN1M012.o
 .text          0x00000000        0x0 C:/Freescale_BM_USB_Stack_v5.0/Src/example/host/hid/mouse/bm/make/host_hid_mouse_twrk70f120m/gcc_arm/MK70FN1M0_HOST_Flash_debug/obj/wdt_kinetis.o
 .data          0x00000000        0x0 C:/Freescale_BM_USB_Stack_v5.0/Src/example/host/hid/mouse/bm/make/host_hid_mouse_twrk70f120m/gcc_arm/MK70FN1M0_HOST_Flash_debug/obj/wdt_kinetis.o
 .bss           0x00000000        0x0 C:/Freescale_BM_USB_Stack_v5.0/Src/example/host/hid/mouse/bm/make/host_hid_mouse_twrk70f120m/gcc_arm/MK70FN1M0_HOST_Flash_debug/obj/wdt_kinetis.o
 .rodata.__g_regs_GPIO_base_addresses
                0x00000000       0x18 C:/Freescale_BM_USB_Stack_v5.0/Src/example/host/hid/mouse/bm/make/host_hid_mouse_twrk70f120m/gcc_arm/MK70FN1M0_HOST_Flash_debug/obj/wdt_kinetis.o
 .rodata.__g_regs_PORT_base_addresses
                0x00000000       0x18 C:/Freescale_BM_USB_Stack_v5.0/Src/example/host/hid/mouse/bm/make/host_hid_mouse_twrk70f120m/gcc_arm/MK70FN1M0_HOST_Flash_debug/obj/wdt_kinetis.o
 .rodata.__g_regs_UART_base_addresses
                0x00000000       0x18 C:/Freescale_BM_USB_Stack_v5.0/Src/example/host/hid/mouse/bm/make/host_hid_mouse_twrk70f120m/gcc_arm/MK70FN1M0_HOST_Flash_debug/obj/wdt_kinetis.o
 .rodata.__g_regs_I2C_base_addresses
                0x00000000        0x8 C:/Freescale_BM_USB_Stack_v5.0/Src/example/host/hid/mouse/bm/make/host_hid_mouse_twrk70f120m/gcc_arm/MK70FN1M0_HOST_Flash_debug/obj/wdt_kinetis.o
 .rodata.__g_regs_I2S_base_addresses
                0x00000000        0x8 C:/Freescale_BM_USB_Stack_v5.0/Src/example/host/hid/mouse/bm/make/host_hid_mouse_twrk70f120m/gcc_arm/MK70FN1M0_HOST_Flash_debug/obj/wdt_kinetis.o
 .text.Watchdog_Reset
                0x00000000       0x28 C:/Freescale_BM_USB_Stack_v5.0/Src/example/host/hid/mouse/bm/make/host_hid_mouse_twrk70f120m/gcc_arm/MK70FN1M0_HOST_Flash_debug/obj/wdt_kinetis.o
 .debug_info    0x00000000      0x1f6 C:/Freescale_BM_USB_Stack_v5.0/Src/example/host/hid/mouse/bm/make/host_hid_mouse_twrk70f120m/gcc_arm/MK70FN1M0_HOST_Flash_debug/obj/wdt_kinetis.o
 .debug_abbrev  0x00000000       0x9e C:/Freescale_BM_USB_Stack_v5.0/Src/example/host/hid/mouse/bm/make/host_hid_mouse_twrk70f120m/gcc_arm/MK70FN1M0_HOST_Flash_debug/obj/wdt_kinetis.o
 .debug_loc     0x00000000       0x2c C:/Freescale_BM_USB_Stack_v5.0/Src/example/host/hid/mouse/bm/make/host_hid_mouse_twrk70f120m/gcc_arm/MK70FN1M0_HOST_Flash_debug/obj/wdt_kinetis.o
 .debug_aranges
                0x00000000       0x20 C:/Freescale_BM_USB_Stack_v5.0/Src/example/host/hid/mouse/bm/make/host_hid_mouse_twrk70f120m/gcc_arm/MK70FN1M0_HOST_Flash_debug/obj/wdt_kinetis.o
 .debug_line    0x00000000      0x184 C:/Freescale_BM_USB_Stack_v5.0/Src/example/host/hid/mouse/bm/make/host_hid_mouse_twrk70f120m/gcc_arm/MK70FN1M0_HOST_Flash_debug/obj/wdt_kinetis.o
 .debug_str     0x00000000      0x23f C:/Freescale_BM_USB_Stack_v5.0/Src/example/host/hid/mouse/bm/make/host_hid_mouse_twrk70f120m/gcc_arm/MK70FN1M0_HOST_Flash_debug/obj/wdt_kinetis.o
 .comment       0x00000000       0x7a C:/Freescale_BM_USB_Stack_v5.0/Src/example/host/hid/mouse/bm/make/host_hid_mouse_twrk70f120m/gcc_arm/MK70FN1M0_HOST_Flash_debug/obj/wdt_kinetis.o
 .ARM.attributes
                0x00000000       0x39 C:/Freescale_BM_USB_Stack_v5.0/Src/example/host/hid/mouse/bm/make/host_hid_mouse_twrk70f120m/gcc_arm/MK70FN1M0_HOST_Flash_debug/obj/wdt_kinetis.o
 .debug_frame   0x00000000       0x28 C:/Freescale_BM_USB_Stack_v5.0/Src/example/host/hid/mouse/bm/make/host_hid_mouse_twrk70f120m/gcc_arm/MK70FN1M0_HOST_Flash_debug/obj/wdt_kinetis.o
 .text          0x00000000        0x0 C:/Freescale_BM_USB_Stack_v5.0/Src/output/twrk70f120m.gcc_arm/debug/usbh/bm/usbh.a(adapter_bm.o)
 .data          0x00000000        0x0 C:/Freescale_BM_USB_Stack_v5.0/Src/output/twrk70f120m.gcc_arm/debug/usbh/bm/usbh.a(adapter_bm.o)
 .bss           0x00000000        0x0 C:/Freescale_BM_USB_Stack_v5.0/Src/output/twrk70f120m.gcc_arm/debug/usbh/bm/usbh.a(adapter_bm.o)
 .rodata.__g_regs_GPIO_base_addresses
                0x00000000       0x18 C:/Freescale_BM_USB_Stack_v5.0/Src/output/twrk70f120m.gcc_arm/debug/usbh/bm/usbh.a(adapter_bm.o)
 .rodata.__g_regs_PORT_base_addresses
                0x00000000       0x18 C:/Freescale_BM_USB_Stack_v5.0/Src/output/twrk70f120m.gcc_arm/debug/usbh/bm/usbh.a(adapter_bm.o)
 .rodata.__g_regs_UART_base_addresses
                0x00000000       0x18 C:/Freescale_BM_USB_Stack_v5.0/Src/output/twrk70f120m.gcc_arm/debug/usbh/bm/usbh.a(adapter_bm.o)
 .rodata.__g_regs_I2C_base_addresses
                0x00000000        0x8 C:/Freescale_BM_USB_Stack_v5.0/Src/output/twrk70f120m.gcc_arm/debug/usbh/bm/usbh.a(adapter_bm.o)
 .rodata.__g_regs_I2S_base_addresses
                0x00000000        0x8 C:/Freescale_BM_USB_Stack_v5.0/Src/output/twrk70f120m.gcc_arm/debug/usbh/bm/usbh.a(adapter_bm.o)
 .text.OS_Task_suspend
                0x00000000       0x18 C:/Freescale_BM_USB_Stack_v5.0/Src/output/twrk70f120m.gcc_arm/debug/usbh/bm/usbh.a(adapter_bm.o)
 .text.OS_Task_resume
                0x00000000       0x18 C:/Freescale_BM_USB_Stack_v5.0/Src/output/twrk70f120m.gcc_arm/debug/usbh/bm/usbh.a(adapter_bm.o)
 .text.OS_Event_get_value
                0x00000000       0x18 C:/Freescale_BM_USB_Stack_v5.0/Src/output/twrk70f120m.gcc_arm/debug/usbh/bm/usbh.a(adapter_bm.o)
 .text.OS_Gpio_deinit
                0x00000000       0x18 C:/Freescale_BM_USB_Stack_v5.0/Src/output/twrk70f120m.gcc_arm/debug/usbh/bm/usbh.a(adapter_bm.o)
 .text.OS_Sem_destroy
                0x00000000       0x34 C:/Freescale_BM_USB_Stack_v5.0/Src/output/twrk70f120m.gcc_arm/debug/usbh/bm/usbh.a(adapter_bm.o)
 .text          0x00000000        0x0 C:/Freescale_BM_USB_Stack_v5.0/Src/output/twrk70f120m.gcc_arm/debug/usbh/bm/usbh.a(usb_host.o)
 .data          0x00000000        0x0 C:/Freescale_BM_USB_Stack_v5.0/Src/output/twrk70f120m.gcc_arm/debug/usbh/bm/usbh.a(usb_host.o)
 .bss           0x00000000        0x0 C:/Freescale_BM_USB_Stack_v5.0/Src/output/twrk70f120m.gcc_arm/debug/usbh/bm/usbh.a(usb_host.o)
 .rodata.__g_regs_GPIO_base_addresses
                0x00000000       0x18 C:/Freescale_BM_USB_Stack_v5.0/Src/output/twrk70f120m.gcc_arm/debug/usbh/bm/usbh.a(usb_host.o)
 .rodata.__g_regs_PORT_base_addresses
                0x00000000       0x18 C:/Freescale_BM_USB_Stack_v5.0/Src/output/twrk70f120m.gcc_arm/debug/usbh/bm/usbh.a(usb_host.o)
 .rodata.__g_regs_UART_base_addresses
                0x00000000       0x18 C:/Freescale_BM_USB_Stack_v5.0/Src/output/twrk70f120m.gcc_arm/debug/usbh/bm/usbh.a(usb_host.o)
 .rodata.__g_regs_I2C_base_addresses
                0x00000000        0x8 C:/Freescale_BM_USB_Stack_v5.0/Src/output/twrk70f120m.gcc_arm/debug/usbh/bm/usbh.a(usb_host.o)
 .rodata.__g_regs_I2S_base_addresses
                0x00000000        0x8 C:/Freescale_BM_USB_Stack_v5.0/Src/output/twrk70f120m.gcc_arm/debug/usbh/bm/usbh.a(usb_host.o)
 .text.usb_host_deinit
                0x00000000       0x9c C:/Freescale_BM_USB_Stack_v5.0/Src/output/twrk70f120m.gcc_arm/debug/usbh/bm/usbh.a(usb_host.o)
 .text.usb_host_send_data
                0x00000000       0xd4 C:/Freescale_BM_USB_Stack_v5.0/Src/output/twrk70f120m.gcc_arm/debug/usbh/bm/usbh.a(usb_host.o)
 .text.usb_host_bus_control
                0x00000000       0x5c C:/Freescale_BM_USB_Stack_v5.0/Src/output/twrk70f120m.gcc_arm/debug/usbh/bm/usbh.a(usb_host.o)
 .text.usb_host_dev_remove
                0x00000000       0x98 C:/Freescale_BM_USB_Stack_v5.0/Src/output/twrk70f120m.gcc_arm/debug/usbh/bm/usbh.a(usb_host.o)
 .text.usb_host_register_service
                0x00000000       0xd4 C:/Freescale_BM_USB_Stack_v5.0/Src/output/twrk70f120m.gcc_arm/debug/usbh/bm/usbh.a(usb_host.o)
 .text.usb_host_unregister_service
                0x00000000       0x94 C:/Freescale_BM_USB_Stack_v5.0/Src/output/twrk70f120m.gcc_arm/debug/usbh/bm/usbh.a(usb_host.o)
 .text.usb_host_register_ch9_callback
                0x00000000       0x78 C:/Freescale_BM_USB_Stack_v5.0/Src/output/twrk70f120m.gcc_arm/debug/usbh/bm/usbh.a(usb_host.o)
 .text.usb_host_unregister_ch9_callback
                0x00000000       0x80 C:/Freescale_BM_USB_Stack_v5.0/Src/output/twrk70f120m.gcc_arm/debug/usbh/bm/usbh.a(usb_host.o)
 .text          0x00000000        0x0 C:/Freescale_BM_USB_Stack_v5.0/Src/output/twrk70f120m.gcc_arm/debug/usbh/bm/usbh.a(usb_host_bsp.o)
 .data          0x00000000        0x0 C:/Freescale_BM_USB_Stack_v5.0/Src/output/twrk70f120m.gcc_arm/debug/usbh/bm/usbh.a(usb_host_bsp.o)
 .bss           0x00000000        0x0 C:/Freescale_BM_USB_Stack_v5.0/Src/output/twrk70f120m.gcc_arm/debug/usbh/bm/usbh.a(usb_host_bsp.o)
 .rodata.__g_regs_UART_base_addresses
                0x00000000       0x18 C:/Freescale_BM_USB_Stack_v5.0/Src/output/twrk70f120m.gcc_arm/debug/usbh/bm/usbh.a(usb_host_bsp.o)
 .rodata.__g_regs_I2C_base_addresses
                0x00000000        0x8 C:/Freescale_BM_USB_Stack_v5.0/Src/output/twrk70f120m.gcc_arm/debug/usbh/bm/usbh.a(usb_host_bsp.o)
 .rodata.__g_regs_I2S_base_addresses
                0x00000000        0x8 C:/Freescale_BM_USB_Stack_v5.0/Src/output/twrk70f120m.gcc_arm/debug/usbh/bm/usbh.a(usb_host_bsp.o)
 .text          0x00000000        0x0 C:/Freescale_BM_USB_Stack_v5.0/Src/output/twrk70f120m.gcc_arm/debug/usbh/bm/usbh.a(usb_host_ch9.o)
 .data          0x00000000        0x0 C:/Freescale_BM_USB_Stack_v5.0/Src/output/twrk70f120m.gcc_arm/debug/usbh/bm/usbh.a(usb_host_ch9.o)
 .bss           0x00000000        0x0 C:/Freescale_BM_USB_Stack_v5.0/Src/output/twrk70f120m.gcc_arm/debug/usbh/bm/usbh.a(usb_host_ch9.o)
 .rodata.__g_regs_GPIO_base_addresses
                0x00000000       0x18 C:/Freescale_BM_USB_Stack_v5.0/Src/output/twrk70f120m.gcc_arm/debug/usbh/bm/usbh.a(usb_host_ch9.o)
 .rodata.__g_regs_PORT_base_addresses
                0x00000000       0x18 C:/Freescale_BM_USB_Stack_v5.0/Src/output/twrk70f120m.gcc_arm/debug/usbh/bm/usbh.a(usb_host_ch9.o)
 .rodata.__g_regs_UART_base_addresses
                0x00000000       0x18 C:/Freescale_BM_USB_Stack_v5.0/Src/output/twrk70f120m.gcc_arm/debug/usbh/bm/usbh.a(usb_host_ch9.o)
 .rodata.__g_regs_I2C_base_addresses
                0x00000000        0x8 C:/Freescale_BM_USB_Stack_v5.0/Src/output/twrk70f120m.gcc_arm/debug/usbh/bm/usbh.a(usb_host_ch9.o)
 .rodata.__g_regs_I2S_base_addresses
                0x00000000        0x8 C:/Freescale_BM_USB_Stack_v5.0/Src/output/twrk70f120m.gcc_arm/debug/usbh/bm/usbh.a(usb_host_ch9.o)
 .rodata.req_prototype
                0x00000000        0x8 C:/Freescale_BM_USB_Stack_v5.0/Src/output/twrk70f120m.gcc_arm/debug/usbh/bm/usbh.a(usb_host_ch9.o)
 .text._usb_host_ch9_get_configuration
                0x00000000       0x88 C:/Freescale_BM_USB_Stack_v5.0/Src/output/twrk70f120m.gcc_arm/debug/usbh/bm/usbh.a(usb_host_ch9.o)
 .text._usb_host_ch9_get_interface
                0x00000000       0x9c C:/Freescale_BM_USB_Stack_v5.0/Src/output/twrk70f120m.gcc_arm/debug/usbh/bm/usbh.a(usb_host_ch9.o)
 .text._usb_host_ch9_get_status
                0x00000000       0xc4 C:/Freescale_BM_USB_Stack_v5.0/Src/output/twrk70f120m.gcc_arm/debug/usbh/bm/usbh.a(usb_host_ch9.o)
 .text._usb_host_ch9_set_descriptor
                0x00000000       0x74 C:/Freescale_BM_USB_Stack_v5.0/Src/output/twrk70f120m.gcc_arm/debug/usbh/bm/usbh.a(usb_host_ch9.o)
 .text._usb_host_ch9_set_feature
                0x00000000       0xc8 C:/Freescale_BM_USB_Stack_v5.0/Src/output/twrk70f120m.gcc_arm/debug/usbh/bm/usbh.a(usb_host_ch9.o)
 .text._usb_host_ch9_synch_frame
                0x00000000       0x9c C:/Freescale_BM_USB_Stack_v5.0/Src/output/twrk70f120m.gcc_arm/debug/usbh/bm/usbh.a(usb_host_ch9.o)
 .text          0x00000000        0x0 C:/Freescale_BM_USB_Stack_v5.0/Src/output/twrk70f120m.gcc_arm/debug/usbh/bm/usbh.a(usb_host_common.o)
 .data          0x00000000        0x0 C:/Freescale_BM_USB_Stack_v5.0/Src/output/twrk70f120m.gcc_arm/debug/usbh/bm/usbh.a(usb_host_common.o)
 .bss           0x00000000        0x0 C:/Freescale_BM_USB_Stack_v5.0/Src/output/twrk70f120m.gcc_arm/debug/usbh/bm/usbh.a(usb_host_common.o)
 .rodata.__g_regs_GPIO_base_addresses
                0x00000000       0x18 C:/Freescale_BM_USB_Stack_v5.0/Src/output/twrk70f120m.gcc_arm/debug/usbh/bm/usbh.a(usb_host_common.o)
 .rodata.__g_regs_PORT_base_addresses
                0x00000000       0x18 C:/Freescale_BM_USB_Stack_v5.0/Src/output/twrk70f120m.gcc_arm/debug/usbh/bm/usbh.a(usb_host_common.o)
 .rodata.__g_regs_UART_base_addresses
                0x00000000       0x18 C:/Freescale_BM_USB_Stack_v5.0/Src/output/twrk70f120m.gcc_arm/debug/usbh/bm/usbh.a(usb_host_common.o)
 .rodata.__g_regs_I2C_base_addresses
                0x00000000        0x8 C:/Freescale_BM_USB_Stack_v5.0/Src/output/twrk70f120m.gcc_arm/debug/usbh/bm/usbh.a(usb_host_common.o)
 .rodata.__g_regs_I2S_base_addresses
                0x00000000        0x8 C:/Freescale_BM_USB_Stack_v5.0/Src/output/twrk70f120m.gcc_arm/debug/usbh/bm/usbh.a(usb_host_common.o)
 .text          0x00000000        0x0 C:/Freescale_BM_USB_Stack_v5.0/Src/output/twrk70f120m.gcc_arm/debug/usbh/bm/usbh.a(usb_host_dev_mng.o)
 .data          0x00000000        0x0 C:/Freescale_BM_USB_Stack_v5.0/Src/output/twrk70f120m.gcc_arm/debug/usbh/bm/usbh.a(usb_host_dev_mng.o)
 .bss           0x00000000        0x0 C:/Freescale_BM_USB_Stack_v5.0/Src/output/twrk70f120m.gcc_arm/debug/usbh/bm/usbh.a(usb_host_dev_mng.o)
 .rodata.__g_regs_GPIO_base_addresses
                0x00000000       0x18 C:/Freescale_BM_USB_Stack_v5.0/Src/output/twrk70f120m.gcc_arm/debug/usbh/bm/usbh.a(usb_host_dev_mng.o)
 .rodata.__g_regs_PORT_base_addresses
                0x00000000       0x18 C:/Freescale_BM_USB_Stack_v5.0/Src/output/twrk70f120m.gcc_arm/debug/usbh/bm/usbh.a(usb_host_dev_mng.o)
 .rodata.__g_regs_UART_base_addresses
                0x00000000       0x18 C:/Freescale_BM_USB_Stack_v5.0/Src/output/twrk70f120m.gcc_arm/debug/usbh/bm/usbh.a(usb_host_dev_mng.o)
 .rodata.__g_regs_I2C_base_addresses
                0x00000000        0x8 C:/Freescale_BM_USB_Stack_v5.0/Src/output/twrk70f120m.gcc_arm/debug/usbh/bm/usbh.a(usb_host_dev_mng.o)
 .rodata.__g_regs_I2S_base_addresses
                0x00000000        0x8 C:/Freescale_BM_USB_Stack_v5.0/Src/output/twrk70f120m.gcc_arm/debug/usbh/bm/usbh.a(usb_host_dev_mng.o)
 .text.usb_host_dev_mng_get_pid
                0x00000000       0x2c C:/Freescale_BM_USB_Stack_v5.0/Src/output/twrk70f120m.gcc_arm/debug/usbh/bm/usbh.a(usb_host_dev_mng.o)
 .text.usb_host_dev_mng_get_vid
                0x00000000       0x2c C:/Freescale_BM_USB_Stack_v5.0/Src/output/twrk70f120m.gcc_arm/debug/usbh/bm/usbh.a(usb_host_dev_mng.o)
 .text          0x00000000        0x0 C:/Freescale_BM_USB_Stack_v5.0/Src/output/twrk70f120m.gcc_arm/debug/usbh/bm/usbh.a(usb_host_hid.o)
 .data          0x00000000        0x0 C:/Freescale_BM_USB_Stack_v5.0/Src/output/twrk70f120m.gcc_arm/debug/usbh/bm/usbh.a(usb_host_hid.o)
 .bss           0x00000000        0x0 C:/Freescale_BM_USB_Stack_v5.0/Src/output/twrk70f120m.gcc_arm/debug/usbh/bm/usbh.a(usb_host_hid.o)
 .rodata.__g_regs_GPIO_base_addresses
                0x00000000       0x18 C:/Freescale_BM_USB_Stack_v5.0/Src/output/twrk70f120m.gcc_arm/debug/usbh/bm/usbh.a(usb_host_hid.o)
 .rodata.__g_regs_PORT_base_addresses
                0x00000000       0x18 C:/Freescale_BM_USB_Stack_v5.0/Src/output/twrk70f120m.gcc_arm/debug/usbh/bm/usbh.a(usb_host_hid.o)
 .rodata.__g_regs_UART_base_addresses
                0x00000000       0x18 C:/Freescale_BM_USB_Stack_v5.0/Src/output/twrk70f120m.gcc_arm/debug/usbh/bm/usbh.a(usb_host_hid.o)
 .rodata.__g_regs_I2C_base_addresses
                0x00000000        0x8 C:/Freescale_BM_USB_Stack_v5.0/Src/output/twrk70f120m.gcc_arm/debug/usbh/bm/usbh.a(usb_host_hid.o)
 .rodata.__g_regs_I2S_base_addresses
                0x00000000        0x8 C:/Freescale_BM_USB_Stack_v5.0/Src/output/twrk70f120m.gcc_arm/debug/usbh/bm/usbh.a(usb_host_hid.o)
 .text.usb_class_hid_get_report
                0x00000000       0x48 C:/Freescale_BM_USB_Stack_v5.0/Src/output/twrk70f120m.gcc_arm/debug/usbh/bm/usbh.a(usb_host_hid.o)
 .text.usb_class_hid_set_report
                0x00000000       0x48 C:/Freescale_BM_USB_Stack_v5.0/Src/output/twrk70f120m.gcc_arm/debug/usbh/bm/usbh.a(usb_host_hid.o)
 .text.usb_class_hid_get_idle
                0x00000000       0x38 C:/Freescale_BM_USB_Stack_v5.0/Src/output/twrk70f120m.gcc_arm/debug/usbh/bm/usbh.a(usb_host_hid.o)
 .text.usb_class_hid_get_protocol
                0x00000000       0x34 C:/Freescale_BM_USB_Stack_v5.0/Src/output/twrk70f120m.gcc_arm/debug/usbh/bm/usbh.a(usb_host_hid.o)
 .text          0x00000000        0x0 C:/Freescale_BM_USB_Stack_v5.0/Src/output/twrk70f120m.gcc_arm/debug/usbh/bm/usbh.a(usb_host_hub_sm.o)
 .data          0x00000000        0x0 C:/Freescale_BM_USB_Stack_v5.0/Src/output/twrk70f120m.gcc_arm/debug/usbh/bm/usbh.a(usb_host_hub_sm.o)
 .bss           0x00000000        0x0 C:/Freescale_BM_USB_Stack_v5.0/Src/output/twrk70f120m.gcc_arm/debug/usbh/bm/usbh.a(usb_host_hub_sm.o)
 .rodata.__g_regs_GPIO_base_addresses
                0x00000000       0x18 C:/Freescale_BM_USB_Stack_v5.0/Src/output/twrk70f120m.gcc_arm/debug/usbh/bm/usbh.a(usb_host_hub_sm.o)
 .rodata.__g_regs_PORT_base_addresses
                0x00000000       0x18 C:/Freescale_BM_USB_Stack_v5.0/Src/output/twrk70f120m.gcc_arm/debug/usbh/bm/usbh.a(usb_host_hub_sm.o)
 .rodata.__g_regs_UART_base_addresses
                0x00000000       0x18 C:/Freescale_BM_USB_Stack_v5.0/Src/output/twrk70f120m.gcc_arm/debug/usbh/bm/usbh.a(usb_host_hub_sm.o)
 .rodata.__g_regs_I2C_base_addresses
                0x00000000        0x8 C:/Freescale_BM_USB_Stack_v5.0/Src/output/twrk70f120m.gcc_arm/debug/usbh/bm/usbh.a(usb_host_hub_sm.o)
 .rodata.__g_regs_I2S_base_addresses
                0x00000000        0x8 C:/Freescale_BM_USB_Stack_v5.0/Src/output/twrk70f120m.gcc_arm/debug/usbh/bm/usbh.a(usb_host_hub_sm.o)
 .text          0x00000000        0x0 C:/Freescale_BM_USB_Stack_v5.0/Src/output/twrk70f120m.gcc_arm/debug/usbh/bm/usbh.a(ehci_host.o)
 .data          0x00000000        0x0 C:/Freescale_BM_USB_Stack_v5.0/Src/output/twrk70f120m.gcc_arm/debug/usbh/bm/usbh.a(ehci_host.o)
 .bss           0x00000000        0x0 C:/Freescale_BM_USB_Stack_v5.0/Src/output/twrk70f120m.gcc_arm/debug/usbh/bm/usbh.a(ehci_host.o)
 .rodata.__g_regs_GPIO_base_addresses
                0x00000000       0x18 C:/Freescale_BM_USB_Stack_v5.0/Src/output/twrk70f120m.gcc_arm/debug/usbh/bm/usbh.a(ehci_host.o)
 .rodata.__g_regs_PORT_base_addresses
                0x00000000       0x18 C:/Freescale_BM_USB_Stack_v5.0/Src/output/twrk70f120m.gcc_arm/debug/usbh/bm/usbh.a(ehci_host.o)
 .rodata.__g_regs_UART_base_addresses
                0x00000000       0x18 C:/Freescale_BM_USB_Stack_v5.0/Src/output/twrk70f120m.gcc_arm/debug/usbh/bm/usbh.a(ehci_host.o)
 .rodata.__g_regs_I2C_base_addresses
                0x00000000        0x8 C:/Freescale_BM_USB_Stack_v5.0/Src/output/twrk70f120m.gcc_arm/debug/usbh/bm/usbh.a(ehci_host.o)
 .rodata.__g_regs_I2S_base_addresses
                0x00000000        0x8 C:/Freescale_BM_USB_Stack_v5.0/Src/output/twrk70f120m.gcc_arm/debug/usbh/bm/usbh.a(ehci_host.o)
 .text.usb_hal_ehci_set_controller_host_mode
                0x00000000       0x30 C:/Freescale_BM_USB_Stack_v5.0/Src/output/twrk70f120m.gcc_arm/debug/usbh/bm/usbh.a(ehci_host.o)
 .text.usb_hal_ehci_set_controller_device_mode
                0x00000000       0x34 C:/Freescale_BM_USB_Stack_v5.0/Src/output/twrk70f120m.gcc_arm/debug/usbh/bm/usbh.a(ehci_host.o)
 .text.usb_hal_ehci_set_big_endian
                0x00000000       0x30 C:/Freescale_BM_USB_Stack_v5.0/Src/output/twrk70f120m.gcc_arm/debug/usbh/bm/usbh.a(ehci_host.o)
 .text.usb_hal_ehci_set_little_endian
                0x00000000       0x30 C:/Freescale_BM_USB_Stack_v5.0/Src/output/twrk70f120m.gcc_arm/debug/usbh/bm/usbh.a(ehci_host.o)
 .text.usb_hal_ehci_disable_setup_lock
                0x00000000       0x30 C:/Freescale_BM_USB_Stack_v5.0/Src/output/twrk70f120m.gcc_arm/debug/usbh/bm/usbh.a(ehci_host.o)
 .text.usb_hal_ehci_enable_setup_lock
                0x00000000       0x30 C:/Freescale_BM_USB_Stack_v5.0/Src/output/twrk70f120m.gcc_arm/debug/usbh/bm/usbh.a(ehci_host.o)
 .text.usb_hal_ehci_get_dcc_params
                0x00000000       0x20 C:/Freescale_BM_USB_Stack_v5.0/Src/output/twrk70f120m.gcc_arm/debug/usbh/bm/usbh.a(ehci_host.o)
 .text.usb_hal_ehci_clear_ep_setup_status
                0x00000000       0x34 C:/Freescale_BM_USB_Stack_v5.0/Src/output/twrk70f120m.gcc_arm/debug/usbh/bm/usbh.a(ehci_host.o)
 .text.usb_hal_ehci_clear_setup_stat_ep_num
                0x00000000       0x24 C:/Freescale_BM_USB_Stack_v5.0/Src/output/twrk70f120m.gcc_arm/debug/usbh/bm/usbh.a(ehci_host.o)
 .text.usb_hal_ehci_get_ep_setup_status
                0x00000000       0x20 C:/Freescale_BM_USB_Stack_v5.0/Src/output/twrk70f120m.gcc_arm/debug/usbh/bm/usbh.a(ehci_host.o)
 .text.usb_hal_ehci_get_ep_complete_status
                0x00000000       0x20 C:/Freescale_BM_USB_Stack_v5.0/Src/output/twrk70f120m.gcc_arm/debug/usbh/bm/usbh.a(ehci_host.o)
 .text.usb_hal_ehci_clear_ep_complete_status
                0x00000000       0x24 C:/Freescale_BM_USB_Stack_v5.0/Src/output/twrk70f120m.gcc_arm/debug/usbh/bm/usbh.a(ehci_host.o)
 .text.usb_hal_ehci_set_eplist_address
                0x00000000       0x24 C:/Freescale_BM_USB_Stack_v5.0/Src/output/twrk70f120m.gcc_arm/debug/usbh/bm/usbh.a(ehci_host.o)
 .text.usb_hal_ehci_get_eplist_address
                0x00000000       0x20 C:/Freescale_BM_USB_Stack_v5.0/Src/output/twrk70f120m.gcc_arm/debug/usbh/bm/usbh.a(ehci_host.o)
 .text.usb_hal_ehci_enable_pull_up
                0x00000000       0x24 C:/Freescale_BM_USB_Stack_v5.0/Src/output/twrk70f120m.gcc_arm/debug/usbh/bm/usbh.a(ehci_host.o)
 .text.usb_hal_ehci_initiate_attach_event
                0x00000000       0x30 C:/Freescale_BM_USB_Stack_v5.0/Src/output/twrk70f120m.gcc_arm/debug/usbh/bm/usbh.a(ehci_host.o)
 .text.usb_hal_ehci_set_dTD_TripWire
                0x00000000       0x30 C:/Freescale_BM_USB_Stack_v5.0/Src/output/twrk70f120m.gcc_arm/debug/usbh/bm/usbh.a(ehci_host.o)
 .text.usb_hal_ehci_clear_dTD_TripWire
                0x00000000       0x30 C:/Freescale_BM_USB_Stack_v5.0/Src/output/twrk70f120m.gcc_arm/debug/usbh/bm/usbh.a(ehci_host.o)
 .text.usb_hal_ehci_is_TripWire_set
                0x00000000       0x24 C:/Freescale_BM_USB_Stack_v5.0/Src/output/twrk70f120m.gcc_arm/debug/usbh/bm/usbh.a(ehci_host.o)
 .text.usb_hal_ehci_clear_usb_cmd_setup_trip_wire
                0x00000000       0x30 C:/Freescale_BM_USB_Stack_v5.0/Src/output/twrk70f120m.gcc_arm/debug/usbh/bm/usbh.a(ehci_host.o)
 .text.usb_hal_ehci_set_usb_cmd_setup_trip_wire
                0x00000000       0x30 C:/Freescale_BM_USB_Stack_v5.0/Src/output/twrk70f120m.gcc_arm/debug/usbh/bm/usbh.a(ehci_host.o)
 .text.usb_hal_ehci_get_cap_length
                0x00000000       0x24 C:/Freescale_BM_USB_Stack_v5.0/Src/output/twrk70f120m.gcc_arm/debug/usbh/bm/usbh.a(ehci_host.o)
 .text.usb_hal_ehci_set_endpoint_prime
                0x00000000       0x24 C:/Freescale_BM_USB_Stack_v5.0/Src/output/twrk70f120m.gcc_arm/debug/usbh/bm/usbh.a(ehci_host.o)
 .text.usb_hal_ehci_get_endpoint_prime
                0x00000000       0x20 C:/Freescale_BM_USB_Stack_v5.0/Src/output/twrk70f120m.gcc_arm/debug/usbh/bm/usbh.a(ehci_host.o)
 .text.usb_hal_echi_get_endpoint_status
                0x00000000       0x20 C:/Freescale_BM_USB_Stack_v5.0/Src/output/twrk70f120m.gcc_arm/debug/usbh/bm/usbh.a(ehci_host.o)
 .text.usb_hal_ehci_flush_endpoint_buffer
                0x00000000       0x24 C:/Freescale_BM_USB_Stack_v5.0/Src/output/twrk70f120m.gcc_arm/debug/usbh/bm/usbh.a(ehci_host.o)
 .text.usb_hal_ehci_is_endpoint_transfer_flushed
                0x00000000       0x28 C:/Freescale_BM_USB_Stack_v5.0/Src/output/twrk70f120m.gcc_arm/debug/usbh/bm/usbh.a(ehci_host.o)
 .text.usb_hal_ehci_clear_device_address
                0x00000000       0x30 C:/Freescale_BM_USB_Stack_v5.0/Src/output/twrk70f120m.gcc_arm/debug/usbh/bm/usbh.a(ehci_host.o)
 .text.usb_hal_ehci_enable_endpoint
                0x00000000       0xc4 C:/Freescale_BM_USB_Stack_v5.0/Src/output/twrk70f120m.gcc_arm/debug/usbh/bm/usbh.a(ehci_host.o)
 .text.usb_hal_ehci_disable_endpoint
                0x00000000       0x54 C:/Freescale_BM_USB_Stack_v5.0/Src/output/twrk70f120m.gcc_arm/debug/usbh/bm/usbh.a(ehci_host.o)
 .text.usb_hal_ehci_get_endpoint_control
                0x00000000       0x44 C:/Freescale_BM_USB_Stack_v5.0/Src/output/twrk70f120m.gcc_arm/debug/usbh/bm/usbh.a(ehci_host.o)
 .text.usb_hal_ehci_clear_endpoint_stall
                0x00000000       0x90 C:/Freescale_BM_USB_Stack_v5.0/Src/output/twrk70f120m.gcc_arm/debug/usbh/bm/usbh.a(ehci_host.o)
 .text.usb_hal_ehci_stall_both_directions
                0x00000000       0x70 C:/Freescale_BM_USB_Stack_v5.0/Src/output/twrk70f120m.gcc_arm/debug/usbh/bm/usbh.a(ehci_host.o)
 .text.usb_hal_ehci_stall_specific_direction
                0x00000000       0x90 C:/Freescale_BM_USB_Stack_v5.0/Src/output/twrk70f120m.gcc_arm/debug/usbh/bm/usbh.a(ehci_host.o)
 .text.usb_hal_ehci_set_device_address
                0x00000000       0x28 C:/Freescale_BM_USB_Stack_v5.0/Src/output/twrk70f120m.gcc_arm/debug/usbh/bm/usbh.a(ehci_host.o)
 .text.usb_hal_ehci_clear_max_packet_length
                0x00000000       0x1c C:/Freescale_BM_USB_Stack_v5.0/Src/output/twrk70f120m.gcc_arm/debug/usbh/bm/usbh.a(ehci_host.o)
 .text.usb_hal_ehci_set_max_packet_length
                0x00000000       0x1c C:/Freescale_BM_USB_Stack_v5.0/Src/output/twrk70f120m.gcc_arm/debug/usbh/bm/usbh.a(ehci_host.o)
 .text.usb_hal_ehci_set_max_packet_length_for_non_iso
                0x00000000       0x1c C:/Freescale_BM_USB_Stack_v5.0/Src/output/twrk70f120m.gcc_arm/debug/usbh/bm/usbh.a(ehci_host.o)
 .text.usb_hal_ehci_is_ios_set
                0x00000000       0x20 C:/Freescale_BM_USB_Stack_v5.0/Src/output/twrk70f120m.gcc_arm/debug/usbh/bm/usbh.a(ehci_host.o)
 .text.usb_hal_ehci_set_next_dtd_terminate
                0x00000000       0x1c C:/Freescale_BM_USB_Stack_v5.0/Src/output/twrk70f120m.gcc_arm/debug/usbh/bm/usbh.a(ehci_host.o)
 .text.usb_hal_ehci_set_dtd_next_tr_elem_terminate
                0x00000000       0x1c C:/Freescale_BM_USB_Stack_v5.0/Src/output/twrk70f120m.gcc_arm/debug/usbh/bm/usbh.a(ehci_host.o)
 .text.usb_hal_ehci_set_dtd_next_tr_elem_ptr
                0x00000000       0x1c C:/Freescale_BM_USB_Stack_v5.0/Src/output/twrk70f120m.gcc_arm/debug/usbh/bm/usbh.a(ehci_host.o)
 .text.usb_hal_ehci_set_qh_next_dtd
                0x00000000       0x1c C:/Freescale_BM_USB_Stack_v5.0/Src/output/twrk70f120m.gcc_arm/debug/usbh/bm/usbh.a(ehci_host.o)
 .text.usb_hal_ehci_set_next_dtd_invalid
                0x00000000       0x1c C:/Freescale_BM_USB_Stack_v5.0/Src/output/twrk70f120m.gcc_arm/debug/usbh/bm/usbh.a(ehci_host.o)
 .text.usb_hal_ehci_clear_SIZE_IOC_STS
                0x00000000       0x1c C:/Freescale_BM_USB_Stack_v5.0/Src/output/twrk70f120m.gcc_arm/debug/usbh/bm/usbh.a(ehci_host.o)
 .text.usb_hal_ehci_clear_IOC_reserved_fields
                0x00000000       0x20 C:/Freescale_BM_USB_Stack_v5.0/Src/output/twrk70f120m.gcc_arm/debug/usbh/bm/usbh.a(ehci_host.o)
 .text.usb_hal_ehci_clear_dtd
                0x00000000       0x4c C:/Freescale_BM_USB_Stack_v5.0/Src/output/twrk70f120m.gcc_arm/debug/usbh/bm/usbh.a(ehci_host.o)
 .text.usb_hal_ehci_set_dtd_buffer_address
                0x00000000       0x44 C:/Freescale_BM_USB_Stack_v5.0/Src/output/twrk70f120m.gcc_arm/debug/usbh/bm/usbh.a(ehci_host.o)
 .text.usb_hal_ehci_set_dtd_size_ioc_status
                0x00000000       0x1c C:/Freescale_BM_USB_Stack_v5.0/Src/output/twrk70f120m.gcc_arm/debug/usbh/bm/usbh.a(ehci_host.o)
 .text.usb_hal_ehci_get_dtd_size_ioc_status
                0x00000000       0x1c C:/Freescale_BM_USB_Stack_v5.0/Src/output/twrk70f120m.gcc_arm/debug/usbh/bm/usbh.a(ehci_host.o)
 .text.usb_hal_ehci_get_next_dtd_address
                0x00000000       0x20 C:/Freescale_BM_USB_Stack_v5.0/Src/output/twrk70f120m.gcc_arm/debug/usbh/bm/usbh.a(ehci_host.o)
 .text.usb_hal_ehci_get_dtd_error_status
                0x00000000       0x20 C:/Freescale_BM_USB_Stack_v5.0/Src/output/twrk70f120m.gcc_arm/debug/usbh/bm/usbh.a(ehci_host.o)
 .text.usb_hal_ehci_clear_qh_error_status
                0x00000000       0x28 C:/Freescale_BM_USB_Stack_v5.0/Src/output/twrk70f120m.gcc_arm/debug/usbh/bm/usbh.a(ehci_host.o)
 .text.usb_hal_ehci_get_tr_packet_size
                0x00000000       0x28 C:/Freescale_BM_USB_Stack_v5.0/Src/output/twrk70f120m.gcc_arm/debug/usbh/bm/usbh.a(ehci_host.o)
 .text.usb_hal_ehci_get_xd_for_this_dtd
                0x00000000       0x1c C:/Freescale_BM_USB_Stack_v5.0/Src/output/twrk70f120m.gcc_arm/debug/usbh/bm/usbh.a(ehci_host.o)
 .text.usb_hal_ehci_clear_SIZE_IOC_INT_STS
                0x00000000       0x1c C:/Freescale_BM_USB_Stack_v5.0/Src/output/twrk70f120m.gcc_arm/debug/usbh/bm/usbh.a(ehci_host.o)
 .text.usb_hal_ehci_get_fstn_normal_path_link_ptr
                0x00000000       0x1c C:/Freescale_BM_USB_Stack_v5.0/Src/output/twrk70f120m.gcc_arm/debug/usbh/bm/usbh.a(ehci_host.o)
 .text.usb_hal_ehci_set_fstn_normal_path_link_ptr
                0x00000000       0x1c C:/Freescale_BM_USB_Stack_v5.0/Src/output/twrk70f120m.gcc_arm/debug/usbh/bm/usbh.a(ehci_host.o)
 .text.usb_hal_ehci_store_direction
                0x00000000       0x28 C:/Freescale_BM_USB_Stack_v5.0/Src/output/twrk70f120m.gcc_arm/debug/usbh/bm/usbh.a(ehci_host.o)
 .text.usb_hal_ehci_get_ep_capab_charac2
                0x00000000       0x1c C:/Freescale_BM_USB_Stack_v5.0/Src/output/twrk70f120m.gcc_arm/debug/usbh/bm/usbh.a(ehci_host.o)
 .text._usb_ehci_update_active_async
                0x00000000       0x58 C:/Freescale_BM_USB_Stack_v5.0/Src/output/twrk70f120m.gcc_arm/debug/usbh/bm/usbh.a(ehci_host.o)
 .text.unlink_periodic_data_structure_from_frame
                0x00000000      0x210 C:/Freescale_BM_USB_Stack_v5.0/Src/output/twrk70f120m.gcc_arm/debug/usbh/bm/usbh.a(ehci_host.o)
 .text.reclaim_band_width
                0x00000000       0xf8 C:/Freescale_BM_USB_Stack_v5.0/Src/output/twrk70f120m.gcc_arm/debug/usbh/bm/usbh.a(ehci_host.o)
 .text._usb_ehci_bus_resume
                0x00000000       0xa0 C:/Freescale_BM_USB_Stack_v5.0/Src/output/twrk70f120m.gcc_arm/debug/usbh/bm/usbh.a(ehci_host.o)
 .text          0x00000000        0x0 C:/Freescale_BM_USB_Stack_v5.0/Src/output/twrk70f120m.gcc_arm/debug/usbh/bm/usbh.a(khci.o)
 .data          0x00000000        0x0 C:/Freescale_BM_USB_Stack_v5.0/Src/output/twrk70f120m.gcc_arm/debug/usbh/bm/usbh.a(khci.o)
 .bss           0x00000000        0x0 C:/Freescale_BM_USB_Stack_v5.0/Src/output/twrk70f120m.gcc_arm/debug/usbh/bm/usbh.a(khci.o)
 .rodata.__g_regs_GPIO_base_addresses
                0x00000000       0x18 C:/Freescale_BM_USB_Stack_v5.0/Src/output/twrk70f120m.gcc_arm/debug/usbh/bm/usbh.a(khci.o)
 .rodata.__g_regs_PORT_base_addresses
                0x00000000       0x18 C:/Freescale_BM_USB_Stack_v5.0/Src/output/twrk70f120m.gcc_arm/debug/usbh/bm/usbh.a(khci.o)
 .rodata.__g_regs_UART_base_addresses
                0x00000000       0x18 C:/Freescale_BM_USB_Stack_v5.0/Src/output/twrk70f120m.gcc_arm/debug/usbh/bm/usbh.a(khci.o)
 .rodata.__g_regs_I2C_base_addresses
                0x00000000        0x8 C:/Freescale_BM_USB_Stack_v5.0/Src/output/twrk70f120m.gcc_arm/debug/usbh/bm/usbh.a(khci.o)
 .rodata.__g_regs_I2S_base_addresses
                0x00000000        0x8 C:/Freescale_BM_USB_Stack_v5.0/Src/output/twrk70f120m.gcc_arm/debug/usbh/bm/usbh.a(khci.o)
 .text          0x00000000        0x0 C:/Freescale_BM_USB_Stack_v5.0/Src/output/twrk70f120m.gcc_arm/debug/usbh/bm/usbh.a(usb_classes.o)
 .data          0x00000000        0x0 C:/Freescale_BM_USB_Stack_v5.0/Src/output/twrk70f120m.gcc_arm/debug/usbh/bm/usbh.a(usb_classes.o)
 .bss           0x00000000        0x0 C:/Freescale_BM_USB_Stack_v5.0/Src/output/twrk70f120m.gcc_arm/debug/usbh/bm/usbh.a(usb_classes.o)
 .rodata.__g_regs_GPIO_base_addresses
                0x00000000       0x18 C:/Freescale_BM_USB_Stack_v5.0/Src/output/twrk70f120m.gcc_arm/debug/usbh/bm/usbh.a(usb_classes.o)
 .rodata.__g_regs_PORT_base_addresses
                0x00000000       0x18 C:/Freescale_BM_USB_Stack_v5.0/Src/output/twrk70f120m.gcc_arm/debug/usbh/bm/usbh.a(usb_classes.o)
 .rodata.__g_regs_UART_base_addresses
                0x00000000       0x18 C:/Freescale_BM_USB_Stack_v5.0/Src/output/twrk70f120m.gcc_arm/debug/usbh/bm/usbh.a(usb_classes.o)
 .rodata.__g_regs_I2C_base_addresses
                0x00000000        0x8 C:/Freescale_BM_USB_Stack_v5.0/Src/output/twrk70f120m.gcc_arm/debug/usbh/bm/usbh.a(usb_classes.o)
 .rodata.__g_regs_I2S_base_addresses
                0x00000000        0x8 C:/Freescale_BM_USB_Stack_v5.0/Src/output/twrk70f120m.gcc_arm/debug/usbh/bm/usbh.a(usb_classes.o)
 .text          0x00000000        0x0 C:/Freescale_BM_USB_Stack_v5.0/Src/output/twrk70f120m.gcc_arm/debug/usbh/bm/usbh.a(usb_host_audio_intf.o)
 .data          0x00000000        0x0 C:/Freescale_BM_USB_Stack_v5.0/Src/output/twrk70f120m.gcc_arm/debug/usbh/bm/usbh.a(usb_host_audio_intf.o)
 .bss           0x00000000        0x0 C:/Freescale_BM_USB_Stack_v5.0/Src/output/twrk70f120m.gcc_arm/debug/usbh/bm/usbh.a(usb_host_audio_intf.o)
 .rodata.__g_regs_GPIO_base_addresses
                0x00000000       0x18 C:/Freescale_BM_USB_Stack_v5.0/Src/output/twrk70f120m.gcc_arm/debug/usbh/bm/usbh.a(usb_host_audio_intf.o)
 .rodata.__g_regs_PORT_base_addresses
                0x00000000       0x18 C:/Freescale_BM_USB_Stack_v5.0/Src/output/twrk70f120m.gcc_arm/debug/usbh/bm/usbh.a(usb_host_audio_intf.o)
 .rodata.__g_regs_UART_base_addresses
                0x00000000       0x18 C:/Freescale_BM_USB_Stack_v5.0/Src/output/twrk70f120m.gcc_arm/debug/usbh/bm/usbh.a(usb_host_audio_intf.o)
 .rodata.__g_regs_I2C_base_addresses
                0x00000000        0x8 C:/Freescale_BM_USB_Stack_v5.0/Src/output/twrk70f120m.gcc_arm/debug/usbh/bm/usbh.a(usb_host_audio_intf.o)
 .rodata.__g_regs_I2S_base_addresses
                0x00000000        0x8 C:/Freescale_BM_USB_Stack_v5.0/Src/output/twrk70f120m.gcc_arm/debug/usbh/bm/usbh.a(usb_host_audio_intf.o)
 .text.usb_class_audio_control_get_descriptors
                0x00000000       0xa0 C:/Freescale_BM_USB_Stack_v5.0/Src/output/twrk70f120m.gcc_arm/debug/usbh/bm/usbh.a(usb_host_audio_intf.o)
 .text.usb_class_audio_stream_get_descriptors
                0x00000000       0x90 C:/Freescale_BM_USB_Stack_v5.0/Src/output/twrk70f120m.gcc_arm/debug/usbh/bm/usbh.a(usb_host_audio_intf.o)
 .text.usb_class_audio_stream_get_sample_type
                0x00000000       0x3c C:/Freescale_BM_USB_Stack_v5.0/Src/output/twrk70f120m.gcc_arm/debug/usbh/bm/usbh.a(usb_host_audio_intf.o)
 .text.usb_class_audio_control_set_descriptors
                0x00000000       0x68 C:/Freescale_BM_USB_Stack_v5.0/Src/output/twrk70f120m.gcc_arm/debug/usbh/bm/usbh.a(usb_host_audio_intf.o)
 .text.usb_class_audio_stream_set_descriptors
                0x00000000       0x68 C:/Freescale_BM_USB_Stack_v5.0/Src/output/twrk70f120m.gcc_arm/debug/usbh/bm/usbh.a(usb_host_audio_intf.o)
 .text          0x00000000        0x0 C:/Freescale_BM_USB_Stack_v5.0/Src/output/twrk70f120m.gcc_arm/debug/usbh/bm/usbh.a(usb_host_cdc_intf.o)
 .data          0x00000000        0x0 C:/Freescale_BM_USB_Stack_v5.0/Src/output/twrk70f120m.gcc_arm/debug/usbh/bm/usbh.a(usb_host_cdc_intf.o)
 .bss           0x00000000        0x0 C:/Freescale_BM_USB_Stack_v5.0/Src/output/twrk70f120m.gcc_arm/debug/usbh/bm/usbh.a(usb_host_cdc_intf.o)
 .rodata.__g_regs_GPIO_base_addresses
                0x00000000       0x18 C:/Freescale_BM_USB_Stack_v5.0/Src/output/twrk70f120m.gcc_arm/debug/usbh/bm/usbh.a(usb_host_cdc_intf.o)
 .rodata.__g_regs_PORT_base_addresses
                0x00000000       0x18 C:/Freescale_BM_USB_Stack_v5.0/Src/output/twrk70f120m.gcc_arm/debug/usbh/bm/usbh.a(usb_host_cdc_intf.o)
 .rodata.__g_regs_UART_base_addresses
                0x00000000       0x18 C:/Freescale_BM_USB_Stack_v5.0/Src/output/twrk70f120m.gcc_arm/debug/usbh/bm/usbh.a(usb_host_cdc_intf.o)
 .rodata.__g_regs_I2C_base_addresses
                0x00000000        0x8 C:/Freescale_BM_USB_Stack_v5.0/Src/output/twrk70f120m.gcc_arm/debug/usbh/bm/usbh.a(usb_host_cdc_intf.o)
 .rodata.__g_regs_I2S_base_addresses
                0x00000000        0x8 C:/Freescale_BM_USB_Stack_v5.0/Src/output/twrk70f120m.gcc_arm/debug/usbh/bm/usbh.a(usb_host_cdc_intf.o)
 .bss.ctrl_anchor
                0x00000000        0x4 C:/Freescale_BM_USB_Stack_v5.0/Src/output/twrk70f120m.gcc_arm/debug/usbh/bm/usbh.a(usb_host_cdc_intf.o)
 .bss.data_anchor
                0x00000000        0x4 C:/Freescale_BM_USB_Stack_v5.0/Src/output/twrk70f120m.gcc_arm/debug/usbh/bm/usbh.a(usb_host_cdc_intf.o)
 .text.usb_class_cdc_intf_validate
                0x00000000       0x20 C:/Freescale_BM_USB_Stack_v5.0/Src/output/twrk70f120m.gcc_arm/debug/usbh/bm/usbh.a(usb_host_cdc_intf.o)
 .text.usb_class_cdc_acm_use_lwevent
                0x00000000       0x4c C:/Freescale_BM_USB_Stack_v5.0/Src/output/twrk70f120m.gcc_arm/debug/usbh/bm/usbh.a(usb_host_cdc_intf.o)
 .text.usb_class_cdc_data_use_lwevent
                0x00000000       0x4c C:/Freescale_BM_USB_Stack_v5.0/Src/output/twrk70f120m.gcc_arm/debug/usbh/bm/usbh.a(usb_host_cdc_intf.o)
 .text.usb_class_cdc_bind_data_interface
                0x00000000       0x50 C:/Freescale_BM_USB_Stack_v5.0/Src/output/twrk70f120m.gcc_arm/debug/usbh/bm/usbh.a(usb_host_cdc_intf.o)
 .text.usb_class_cdc_bind_ctrl_interface
                0x00000000       0x54 C:/Freescale_BM_USB_Stack_v5.0/Src/output/twrk70f120m.gcc_arm/debug/usbh/bm/usbh.a(usb_host_cdc_intf.o)
 .text.usb_class_cdc_register_interface
                0x00000000       0x54 C:/Freescale_BM_USB_Stack_v5.0/Src/output/twrk70f120m.gcc_arm/debug/usbh/bm/usbh.a(usb_host_cdc_intf.o)
 .text.usb_class_cdc_unregister_interface
                0x00000000       0x5c C:/Freescale_BM_USB_Stack_v5.0/Src/output/twrk70f120m.gcc_arm/debug/usbh/bm/usbh.a(usb_host_cdc_intf.o)
 .text.usb_class_cdc_get_ctrl_interface
                0x00000000       0x50 C:/Freescale_BM_USB_Stack_v5.0/Src/output/twrk70f120m.gcc_arm/debug/usbh/bm/usbh.a(usb_host_cdc_intf.o)
 .text.usb_class_cdc_get_data_interface
                0x00000000       0x50 C:/Freescale_BM_USB_Stack_v5.0/Src/output/twrk70f120m.gcc_arm/debug/usbh/bm/usbh.a(usb_host_cdc_intf.o)
 .text.usb_class_cdc_get_acm_descriptors
                0x00000000       0xf4 C:/Freescale_BM_USB_Stack_v5.0/Src/output/twrk70f120m.gcc_arm/debug/usbh/bm/usbh.a(usb_host_cdc_intf.o)
 .text.usb_class_cdc_set_acm_descriptors
                0x00000000       0x58 C:/Freescale_BM_USB_Stack_v5.0/Src/output/twrk70f120m.gcc_arm/debug/usbh/bm/usbh.a(usb_host_cdc_intf.o)
 .text.usb_class_cdc_get_ctrl_descriptor
                0x00000000      0x114 C:/Freescale_BM_USB_Stack_v5.0/Src/output/twrk70f120m.gcc_arm/debug/usbh/bm/usbh.a(usb_host_cdc_intf.o)
 .text.usb_class_cdc_bind_data_interfaces
                0x00000000       0xac C:/Freescale_BM_USB_Stack_v5.0/Src/output/twrk70f120m.gcc_arm/debug/usbh/bm/usbh.a(usb_host_cdc_intf.o)
 .text.usb_class_cdc_unbind_data_interfaces
                0x00000000       0x60 C:/Freescale_BM_USB_Stack_v5.0/Src/output/twrk70f120m.gcc_arm/debug/usbh/bm/usbh.a(usb_host_cdc_intf.o)
 .text.usb_class_cdc_bind_acm_interface
                0x00000000       0x30 C:/Freescale_BM_USB_Stack_v5.0/Src/output/twrk70f120m.gcc_arm/debug/usbh/bm/usbh.a(usb_host_cdc_intf.o)
 .text.usb_class_cdc_unbind_acm_interface
                0x00000000       0x40 C:/Freescale_BM_USB_Stack_v5.0/Src/output/twrk70f120m.gcc_arm/debug/usbh/bm/usbh.a(usb_host_cdc_intf.o)
 .text          0x00000000        0x0 C:/Freescale_BM_USB_Stack_v5.0/Src/output/twrk70f120m.gcc_arm/debug/usbh/bm/usbh.a(usb_host_hub.o)
 .data          0x00000000        0x0 C:/Freescale_BM_USB_Stack_v5.0/Src/output/twrk70f120m.gcc_arm/debug/usbh/bm/usbh.a(usb_host_hub.o)
 .bss           0x00000000        0x0 C:/Freescale_BM_USB_Stack_v5.0/Src/output/twrk70f120m.gcc_arm/debug/usbh/bm/usbh.a(usb_host_hub.o)
 .rodata.__g_regs_GPIO_base_addresses
                0x00000000       0x18 C:/Freescale_BM_USB_Stack_v5.0/Src/output/twrk70f120m.gcc_arm/debug/usbh/bm/usbh.a(usb_host_hub.o)
 .rodata.__g_regs_PORT_base_addresses
                0x00000000       0x18 C:/Freescale_BM_USB_Stack_v5.0/Src/output/twrk70f120m.gcc_arm/debug/usbh/bm/usbh.a(usb_host_hub.o)
 .rodata.__g_regs_UART_base_addresses
                0x00000000       0x18 C:/Freescale_BM_USB_Stack_v5.0/Src/output/twrk70f120m.gcc_arm/debug/usbh/bm/usbh.a(usb_host_hub.o)
 .rodata.__g_regs_I2C_base_addresses
                0x00000000        0x8 C:/Freescale_BM_USB_Stack_v5.0/Src/output/twrk70f120m.gcc_arm/debug/usbh/bm/usbh.a(usb_host_hub.o)
 .rodata.__g_regs_I2S_base_addresses
                0x00000000        0x8 C:/Freescale_BM_USB_Stack_v5.0/Src/output/twrk70f120m.gcc_arm/debug/usbh/bm/usbh.a(usb_host_hub.o)
 .text.usb_class_hub_get_level
                0x00000000       0x40 C:/Freescale_BM_USB_Stack_v5.0/Src/output/twrk70f120m.gcc_arm/debug/usbh/bm/usbh.a(usb_host_hub.o)
 .text.usb_class_hub_clear_feature
                0x00000000       0x3c C:/Freescale_BM_USB_Stack_v5.0/Src/output/twrk70f120m.gcc_arm/debug/usbh/bm/usbh.a(usb_host_hub.o)
 .text          0x00000000        0x0 C:/Freescale_BM_USB_Stack_v5.0/Src/output/twrk70f120m.gcc_arm/debug/usbh/bm/usbh.a(usb_host_msd_bo.o)
 .data          0x00000000        0x0 C:/Freescale_BM_USB_Stack_v5.0/Src/output/twrk70f120m.gcc_arm/debug/usbh/bm/usbh.a(usb_host_msd_bo.o)
 .bss           0x00000000        0x0 C:/Freescale_BM_USB_Stack_v5.0/Src/output/twrk70f120m.gcc_arm/debug/usbh/bm/usbh.a(usb_host_msd_bo.o)
 .rodata.__g_regs_GPIO_base_addresses
                0x00000000       0x18 C:/Freescale_BM_USB_Stack_v5.0/Src/output/twrk70f120m.gcc_arm/debug/usbh/bm/usbh.a(usb_host_msd_bo.o)
 .rodata.__g_regs_PORT_base_addresses
                0x00000000       0x18 C:/Freescale_BM_USB_Stack_v5.0/Src/output/twrk70f120m.gcc_arm/debug/usbh/bm/usbh.a(usb_host_msd_bo.o)
 .rodata.__g_regs_UART_base_addresses
                0x00000000       0x18 C:/Freescale_BM_USB_Stack_v5.0/Src/output/twrk70f120m.gcc_arm/debug/usbh/bm/usbh.a(usb_host_msd_bo.o)
 .rodata.__g_regs_I2C_base_addresses
                0x00000000        0x8 C:/Freescale_BM_USB_Stack_v5.0/Src/output/twrk70f120m.gcc_arm/debug/usbh/bm/usbh.a(usb_host_msd_bo.o)
 .rodata.__g_regs_I2S_base_addresses
                0x00000000        0x8 C:/Freescale_BM_USB_Stack_v5.0/Src/output/twrk70f120m.gcc_arm/debug/usbh/bm/usbh.a(usb_host_msd_bo.o)
 .text.usb_class_mass_storage_device_command
                0x00000000       0xd8 C:/Freescale_BM_USB_Stack_v5.0/Src/output/twrk70f120m.gcc_arm/debug/usbh/bm/usbh.a(usb_host_msd_bo.o)
 .text.usb_class_mass_storage_device_command_cancel
                0x00000000       0x54 C:/Freescale_BM_USB_Stack_v5.0/Src/output/twrk70f120m.gcc_arm/debug/usbh/bm/usbh.a(usb_host_msd_bo.o)
 .text.usb_class_mass_call_back_cbw
                0x00000000      0x190 C:/Freescale_BM_USB_Stack_v5.0/Src/output/twrk70f120m.gcc_arm/debug/usbh/bm/usbh.a(usb_host_msd_bo.o)
 .text.usb_class_mass_call_back_dphase
                0x00000000      0x17c C:/Freescale_BM_USB_Stack_v5.0/Src/output/twrk70f120m.gcc_arm/debug/usbh/bm/usbh.a(usb_host_msd_bo.o)
 .text.usb_class_mass_call_back_csw
                0x00000000      0x2d0 C:/Freescale_BM_USB_Stack_v5.0/Src/output/twrk70f120m.gcc_arm/debug/usbh/bm/usbh.a(usb_host_msd_bo.o)
 .text.usb_class_mass_pass_on_usb
                0x00000000      0x2f4 C:/Freescale_BM_USB_Stack_v5.0/Src/output/twrk70f120m.gcc_arm/debug/usbh/bm/usbh.a(usb_host_msd_bo.o)
 .text.usb_class_mass_getmaxlun_bulkonly
                0x00000000      0x134 C:/Freescale_BM_USB_Stack_v5.0/Src/output/twrk70f120m.gcc_arm/debug/usbh/bm/usbh.a(usb_host_msd_bo.o)
 .text.usb_class_mass_getvidpid
                0x00000000       0x74 C:/Freescale_BM_USB_Stack_v5.0/Src/output/twrk70f120m.gcc_arm/debug/usbh/bm/usbh.a(usb_host_msd_bo.o)
 .text.usb_class_mass_clear_bulk_pipe_on_usb
                0x00000000      0x120 C:/Freescale_BM_USB_Stack_v5.0/Src/output/twrk70f120m.gcc_arm/debug/usbh/bm/usbh.a(usb_host_msd_bo.o)
 .text.usb_class_mass_reset_recovery_on_usb
                0x00000000      0x13c C:/Freescale_BM_USB_Stack_v5.0/Src/output/twrk70f120m.gcc_arm/debug/usbh/bm/usbh.a(usb_host_msd_bo.o)
 .text.usb_class_mass_reset_callback
                0x00000000      0x1f4 C:/Freescale_BM_USB_Stack_v5.0/Src/output/twrk70f120m.gcc_arm/debug/usbh/bm/usbh.a(usb_host_msd_bo.o)
 .text.usb_class_mass_ctrl_callback
                0x00000000       0x5c C:/Freescale_BM_USB_Stack_v5.0/Src/output/twrk70f120m.gcc_arm/debug/usbh/bm/usbh.a(usb_host_msd_bo.o)
 .text.usb_class_mass_reset_in_pipe
                0x00000000      0x154 C:/Freescale_BM_USB_Stack_v5.0/Src/output/twrk70f120m.gcc_arm/debug/usbh/bm/usbh.a(usb_host_msd_bo.o)
 .text.usb_class_mass_reset_out_pipe
                0x00000000      0x148 C:/Freescale_BM_USB_Stack_v5.0/Src/output/twrk70f120m.gcc_arm/debug/usbh/bm/usbh.a(usb_host_msd_bo.o)
 .text          0x00000000        0x0 C:/Freescale_BM_USB_Stack_v5.0/Src/output/twrk70f120m.gcc_arm/debug/usbh/bm/usbh.a(usb_host_msd_queue.o)
 .data          0x00000000        0x0 C:/Freescale_BM_USB_Stack_v5.0/Src/output/twrk70f120m.gcc_arm/debug/usbh/bm/usbh.a(usb_host_msd_queue.o)
 .bss           0x00000000        0x0 C:/Freescale_BM_USB_Stack_v5.0/Src/output/twrk70f120m.gcc_arm/debug/usbh/bm/usbh.a(usb_host_msd_queue.o)
 .rodata.__g_regs_GPIO_base_addresses
                0x00000000       0x18 C:/Freescale_BM_USB_Stack_v5.0/Src/output/twrk70f120m.gcc_arm/debug/usbh/bm/usbh.a(usb_host_msd_queue.o)
 .rodata.__g_regs_PORT_base_addresses
                0x00000000       0x18 C:/Freescale_BM_USB_Stack_v5.0/Src/output/twrk70f120m.gcc_arm/debug/usbh/bm/usbh.a(usb_host_msd_queue.o)
 .rodata.__g_regs_UART_base_addresses
                0x00000000       0x18 C:/Freescale_BM_USB_Stack_v5.0/Src/output/twrk70f120m.gcc_arm/debug/usbh/bm/usbh.a(usb_host_msd_queue.o)
 .rodata.__g_regs_I2C_base_addresses
                0x00000000        0x8 C:/Freescale_BM_USB_Stack_v5.0/Src/output/twrk70f120m.gcc_arm/debug/usbh/bm/usbh.a(usb_host_msd_queue.o)
 .rodata.__g_regs_I2S_base_addresses
                0x00000000        0x8 C:/Freescale_BM_USB_Stack_v5.0/Src/output/twrk70f120m.gcc_arm/debug/usbh/bm/usbh.a(usb_host_msd_queue.o)
 .text.usb_class_mass_q_insert
                0x00000000       0x7c C:/Freescale_BM_USB_Stack_v5.0/Src/output/twrk70f120m.gcc_arm/debug/usbh/bm/usbh.a(usb_host_msd_queue.o)
 .text.usb_class_mass_deleteq
                0x00000000       0x6c C:/Freescale_BM_USB_Stack_v5.0/Src/output/twrk70f120m.gcc_arm/debug/usbh/bm/usbh.a(usb_host_msd_queue.o)
 .text.usb_class_mass_get_pending_request
                0x00000000       0x54 C:/Freescale_BM_USB_Stack_v5.0/Src/output/twrk70f120m.gcc_arm/debug/usbh/bm/usbh.a(usb_host_msd_queue.o)
 .text.usb_class_mass_cancelq
                0x00000000       0x98 C:/Freescale_BM_USB_Stack_v5.0/Src/output/twrk70f120m.gcc_arm/debug/usbh/bm/usbh.a(usb_host_msd_queue.o)
 .text          0x00000000        0x0 C:/Freescale_BM_USB_Stack_v5.0/Src/output/twrk70f120m.gcc_arm/debug/usbh/bm/usbh.a(usb_host_phdc.o)
 .data          0x00000000        0x0 C:/Freescale_BM_USB_Stack_v5.0/Src/output/twrk70f120m.gcc_arm/debug/usbh/bm/usbh.a(usb_host_phdc.o)
 .bss           0x00000000        0x0 C:/Freescale_BM_USB_Stack_v5.0/Src/output/twrk70f120m.gcc_arm/debug/usbh/bm/usbh.a(usb_host_phdc.o)
 .rodata.__g_regs_GPIO_base_addresses
                0x00000000       0x18 C:/Freescale_BM_USB_Stack_v5.0/Src/output/twrk70f120m.gcc_arm/debug/usbh/bm/usbh.a(usb_host_phdc.o)
 .rodata.__g_regs_PORT_base_addresses
                0x00000000       0x18 C:/Freescale_BM_USB_Stack_v5.0/Src/output/twrk70f120m.gcc_arm/debug/usbh/bm/usbh.a(usb_host_phdc.o)
 .rodata.__g_regs_UART_base_addresses
                0x00000000       0x18 C:/Freescale_BM_USB_Stack_v5.0/Src/output/twrk70f120m.gcc_arm/debug/usbh/bm/usbh.a(usb_host_phdc.o)
 .rodata.__g_regs_I2C_base_addresses
                0x00000000        0x8 C:/Freescale_BM_USB_Stack_v5.0/Src/output/twrk70f120m.gcc_arm/debug/usbh/bm/usbh.a(usb_host_phdc.o)
 .rodata.__g_regs_I2S_base_addresses
                0x00000000        0x8 C:/Freescale_BM_USB_Stack_v5.0/Src/output/twrk70f120m.gcc_arm/debug/usbh/bm/usbh.a(usb_host_phdc.o)
 .rodata.msg_preamble_signature
                0x00000000       0x14 C:/Freescale_BM_USB_Stack_v5.0/Src/output/twrk70f120m.gcc_arm/debug/usbh/bm/usbh.a(usb_host_phdc.o)
 .text.usb_class_phdc_send_data
                0x00000000      0x1e4 C:/Freescale_BM_USB_Stack_v5.0/Src/output/twrk70f120m.gcc_arm/debug/usbh/bm/usbh.a(usb_host_phdc.o)
 .text.usb_class_phdc_set_callbacks
                0x00000000       0x60 C:/Freescale_BM_USB_Stack_v5.0/Src/output/twrk70f120m.gcc_arm/debug/usbh/bm/usbh.a(usb_host_phdc.o)
 .text.usb_class_phdc_recv_data
                0x00000000      0x160 C:/Freescale_BM_USB_Stack_v5.0/Src/output/twrk70f120m.gcc_arm/debug/usbh/bm/usbh.a(usb_host_phdc.o)
 .text.usb_class_phdc_recv_data_callback
                0x00000000      0x1a4 C:/Freescale_BM_USB_Stack_v5.0/Src/output/twrk70f120m.gcc_arm/debug/usbh/bm/usbh.a(usb_host_phdc.o)
 .text.usb_class_phdc_search_endpoint_type
                0x00000000       0x58 C:/Freescale_BM_USB_Stack_v5.0/Src/output/twrk70f120m.gcc_arm/debug/usbh/bm/usbh.a(usb_host_phdc.o)
 .text.usb_class_phdc_send_control_request
                0x00000000      0x1e8 C:/Freescale_BM_USB_Stack_v5.0/Src/output/twrk70f120m.gcc_arm/debug/usbh/bm/usbh.a(usb_host_phdc.o)
 .text.usb_class_phdc_send_data_callback
                0x00000000       0xb4 C:/Freescale_BM_USB_Stack_v5.0/Src/output/twrk70f120m.gcc_arm/debug/usbh/bm/usbh.a(usb_host_phdc.o)
 .text.usb_class_phdc_interface_transfers_pending
                0x00000000       0x64 C:/Freescale_BM_USB_Stack_v5.0/Src/output/twrk70f120m.gcc_arm/debug/usbh/bm/usbh.a(usb_host_phdc.o)
 .text.usb_class_phdc_pipe_transfers_pending
                0x00000000       0x64 C:/Freescale_BM_USB_Stack_v5.0/Src/output/twrk70f120m.gcc_arm/debug/usbh/bm/usbh.a(usb_host_phdc.o)
 .text.usb_class_phdc_send_control_callback
                0x00000000       0xf8 C:/Freescale_BM_USB_Stack_v5.0/Src/output/twrk70f120m.gcc_arm/debug/usbh/bm/usbh.a(usb_host_phdc.o)
 .text          0x00000000        0x0 C:/FREESC~1/CWMCUV~1.7/CROSS_~1/ARM-NO~1/arm-none-eabi/lib/armv7e-m/softfp/libc.a(lib_a-malloc.o)
 .data          0x00000000        0x0 C:/FREESC~1/CWMCUV~1.7/CROSS_~1/ARM-NO~1/arm-none-eabi/lib/armv7e-m/softfp/libc.a(lib_a-malloc.o)
 .bss           0x00000000        0x0 C:/FREESC~1/CWMCUV~1.7/CROSS_~1/ARM-NO~1/arm-none-eabi/lib/armv7e-m/softfp/libc.a(lib_a-malloc.o)
 .text          0x00000000        0x0 C:/FREESC~1/CWMCUV~1.7/CROSS_~1/ARM-NO~1/arm-none-eabi/lib/armv7e-m/softfp/libc.a(lib_a-mallocr.o)
 .data          0x00000000        0x0 C:/FREESC~1/CWMCUV~1.7/CROSS_~1/ARM-NO~1/arm-none-eabi/lib/armv7e-m/softfp/libc.a(lib_a-mallocr.o)
 .bss           0x00000000        0x0 C:/FREESC~1/CWMCUV~1.7/CROSS_~1/ARM-NO~1/arm-none-eabi/lib/armv7e-m/softfp/libc.a(lib_a-mallocr.o)
 .text          0x00000000        0x0 C:/FREESC~1/CWMCUV~1.7/CROSS_~1/ARM-NO~1/arm-none-eabi/lib/armv7e-m/softfp/libc.a(lib_a-memcpy.o)
 .data          0x00000000        0x0 C:/FREESC~1/CWMCUV~1.7/CROSS_~1/ARM-NO~1/arm-none-eabi/lib/armv7e-m/softfp/libc.a(lib_a-memcpy.o)
 .bss           0x00000000        0x0 C:/FREESC~1/CWMCUV~1.7/CROSS_~1/ARM-NO~1/arm-none-eabi/lib/armv7e-m/softfp/libc.a(lib_a-memcpy.o)
 .text          0x00000000        0x0 C:/FREESC~1/CWMCUV~1.7/CROSS_~1/ARM-NO~1/arm-none-eabi/lib/armv7e-m/softfp/libc.a(lib_a-memset.o)
 .data          0x00000000        0x0 C:/FREESC~1/CWMCUV~1.7/CROSS_~1/ARM-NO~1/arm-none-eabi/lib/armv7e-m/softfp/libc.a(lib_a-memset.o)
 .bss           0x00000000        0x0 C:/FREESC~1/CWMCUV~1.7/CROSS_~1/ARM-NO~1/arm-none-eabi/lib/armv7e-m/softfp/libc.a(lib_a-memset.o)
 .text          0x00000000        0x0 C:/FREESC~1/CWMCUV~1.7/CROSS_~1/ARM-NO~1/arm-none-eabi/lib/armv7e-m/softfp/libc.a(lib_a-mlock.o)
 .data          0x00000000        0x0 C:/FREESC~1/CWMCUV~1.7/CROSS_~1/ARM-NO~1/arm-none-eabi/lib/armv7e-m/softfp/libc.a(lib_a-mlock.o)
 .bss           0x00000000        0x0 C:/FREESC~1/CWMCUV~1.7/CROSS_~1/ARM-NO~1/arm-none-eabi/lib/armv7e-m/softfp/libc.a(lib_a-mlock.o)
 .text          0x00000000        0x0 C:/FREESC~1/CWMCUV~1.7/CROSS_~1/ARM-NO~1/arm-none-eabi/lib/armv7e-m/softfp/libc.a(lib_a-sbrkr.o)
 .data          0x00000000        0x0 C:/FREESC~1/CWMCUV~1.7/CROSS_~1/ARM-NO~1/arm-none-eabi/lib/armv7e-m/softfp/libc.a(lib_a-sbrkr.o)
 .bss           0x00000000        0x0 C:/FREESC~1/CWMCUV~1.7/CROSS_~1/ARM-NO~1/arm-none-eabi/lib/armv7e-m/softfp/libc.a(lib_a-sbrkr.o)
 .text          0x00000000        0x0 C:/FREESC~1/CWMCUV~1.7/CROSS_~1/ARM-NO~1/arm-none-eabi/lib/armv7e-m/softfp/libc.a(lib_a-strlen.o)
 .data          0x00000000        0x0 C:/FREESC~1/CWMCUV~1.7/CROSS_~1/ARM-NO~1/arm-none-eabi/lib/armv7e-m/softfp/libc.a(lib_a-strlen.o)
 .bss           0x00000000        0x0 C:/FREESC~1/CWMCUV~1.7/CROSS_~1/ARM-NO~1/arm-none-eabi/lib/armv7e-m/softfp/libc.a(lib_a-strlen.o)
 .text          0x00000000        0x0 C:/FREESC~1/CWMCUV~1.7/CROSS_~1/ARM-NO~1/arm-none-eabi/lib/armv7e-m/softfp/libc.a(lib_a-strncmp.o)
 .data          0x00000000        0x0 C:/FREESC~1/CWMCUV~1.7/CROSS_~1/ARM-NO~1/arm-none-eabi/lib/armv7e-m/softfp/libc.a(lib_a-strncmp.o)
 .bss           0x00000000        0x0 C:/FREESC~1/CWMCUV~1.7/CROSS_~1/ARM-NO~1/arm-none-eabi/lib/armv7e-m/softfp/libc.a(lib_a-strncmp.o)
 .text.strncmp  0x00000000      0x120 C:/FREESC~1/CWMCUV~1.7/CROSS_~1/ARM-NO~1/arm-none-eabi/lib/armv7e-m/softfp/libc.a(lib_a-strncmp.o)
 .ARM.attributes
                0x00000000       0x34 C:/FREESC~1/CWMCUV~1.7/CROSS_~1/ARM-NO~1/arm-none-eabi/lib/armv7e-m/softfp/libc.a(lib_a-strncmp.o)
 .debug_frame   0x00000000       0x2c C:/FREESC~1/CWMCUV~1.7/CROSS_~1/ARM-NO~1/arm-none-eabi/lib/armv7e-m/softfp/libc.a(lib_a-strncmp.o)
 .text          0x00000000        0x0 C:/FREESC~1/CWMCUV~1.7/CROSS_~1/ARM-NO~1/arm-none-eabi/lib/armv7e-m/softfp/libc.a(lib_a-freer.o)
 .data          0x00000000        0x0 C:/FREESC~1/CWMCUV~1.7/CROSS_~1/ARM-NO~1/arm-none-eabi/lib/armv7e-m/softfp/libc.a(lib_a-freer.o)
 .bss           0x00000000        0x0 C:/FREESC~1/CWMCUV~1.7/CROSS_~1/ARM-NO~1/arm-none-eabi/lib/armv7e-m/softfp/libc.a(lib_a-freer.o)
 .text          0x00000000        0x0 C:/FREESC~1/CWMCUV~1.7/CROSS_~1/ARM-NO~1/arm-none-eabi/lib/armv7e-m/softfp/libc.a(lib_a-impure.o)
 .data          0x00000000        0x0 C:/FREESC~1/CWMCUV~1.7/CROSS_~1/ARM-NO~1/arm-none-eabi/lib/armv7e-m/softfp/libc.a(lib_a-impure.o)
 .bss           0x00000000        0x0 C:/FREESC~1/CWMCUV~1.7/CROSS_~1/ARM-NO~1/arm-none-eabi/lib/armv7e-m/softfp/libc.a(lib_a-impure.o)
 .rodata._global_impure_ptr
                0x00000000        0x4 C:/FREESC~1/CWMCUV~1.7/CROSS_~1/ARM-NO~1/arm-none-eabi/lib/armv7e-m/softfp/libc.a(lib_a-impure.o)
 .text          0x00000000        0x0 C:/FREESC~1/CWMCUV~1.7/CROSS_~1/ARM-NO~1/arm-none-eabi/lib/armv7e-m/softfp/libc.a(lib_a-reent.o)
 .data          0x00000000        0x0 C:/FREESC~1/CWMCUV~1.7/CROSS_~1/ARM-NO~1/arm-none-eabi/lib/armv7e-m/softfp/libc.a(lib_a-reent.o)
 .bss           0x00000000        0x0 C:/FREESC~1/CWMCUV~1.7/CROSS_~1/ARM-NO~1/arm-none-eabi/lib/armv7e-m/softfp/libc.a(lib_a-reent.o)
 .text.cleanup_glue
                0x00000000       0x1c C:/FREESC~1/CWMCUV~1.7/CROSS_~1/ARM-NO~1/arm-none-eabi/lib/armv7e-m/softfp/libc.a(lib_a-reent.o)
 .text._reclaim_reent
                0x00000000       0x8c C:/FREESC~1/CWMCUV~1.7/CROSS_~1/ARM-NO~1/arm-none-eabi/lib/armv7e-m/softfp/libc.a(lib_a-reent.o)
 .text._wrapup_reent
                0x00000000       0x74 C:/FREESC~1/CWMCUV~1.7/CROSS_~1/ARM-NO~1/arm-none-eabi/lib/armv7e-m/softfp/libc.a(lib_a-reent.o)
 .text          0x00000000        0x0 C:/FREESC~1/CWMCUV~1.7/CROSS_~1/ARM-NO~1/arm-none-eabi/lib/armv7e-m/softfp/libnosys.a(sbrk.o)
 .data          0x00000000        0x0 C:/FREESC~1/CWMCUV~1.7/CROSS_~1/ARM-NO~1/arm-none-eabi/lib/armv7e-m/softfp/libnosys.a(sbrk.o)
 .bss           0x00000000        0x0 C:/FREESC~1/CWMCUV~1.7/CROSS_~1/ARM-NO~1/arm-none-eabi/lib/armv7e-m/softfp/libnosys.a(sbrk.o)

Memory Configuration

Name             Origin             Length             Attributes
rom              0x00000000         0x00080000         xr
vectram          0x1fff0000         0x00000410         xrw
ram              0x1fff0410         0x0001fbf0         rw
*default*        0x00000000         0xffffffff

Linker script and memory map

LOAD C:/Freescale_BM_USB_Stack_v5.0/Src/example/host/hid/mouse/bm/make/host_hid_mouse_twrk70f120m/gcc_arm/MK70FN1M0_HOST_Flash_debug/obj/bmevent.o
LOAD C:/Freescale_BM_USB_Stack_v5.0/Src/example/host/hid/mouse/bm/make/host_hid_mouse_twrk70f120m/gcc_arm/MK70FN1M0_HOST_Flash_debug/obj/bmisr.o
LOAD C:/Freescale_BM_USB_Stack_v5.0/Src/example/host/hid/mouse/bm/make/host_hid_mouse_twrk70f120m/gcc_arm/MK70FN1M0_HOST_Flash_debug/obj/bmmsgq.o
LOAD C:/Freescale_BM_USB_Stack_v5.0/Src/example/host/hid/mouse/bm/make/host_hid_mouse_twrk70f120m/gcc_arm/MK70FN1M0_HOST_Flash_debug/obj/bmsem.o
LOAD C:/Freescale_BM_USB_Stack_v5.0/Src/example/host/hid/mouse/bm/make/host_hid_mouse_twrk70f120m/gcc_arm/MK70FN1M0_HOST_Flash_debug/obj/hidmouse.o
LOAD C:/Freescale_BM_USB_Stack_v5.0/Src/example/host/hid/mouse/bm/make/host_hid_mouse_twrk70f120m/gcc_arm/MK70FN1M0_HOST_Flash_debug/obj/init_gpio.o
LOAD C:/Freescale_BM_USB_Stack_v5.0/Src/example/host/hid/mouse/bm/make/host_hid_mouse_twrk70f120m/gcc_arm/MK70FN1M0_HOST_Flash_debug/obj/main_kinetis.o
LOAD C:/Freescale_BM_USB_Stack_v5.0/Src/example/host/hid/mouse/bm/make/host_hid_mouse_twrk70f120m/gcc_arm/MK70FN1M0_HOST_Flash_debug/obj/mem_util.o
LOAD C:/Freescale_BM_USB_Stack_v5.0/Src/example/host/hid/mouse/bm/make/host_hid_mouse_twrk70f120m/gcc_arm/MK70FN1M0_HOST_Flash_debug/obj/nvic.o
LOAD C:/Freescale_BM_USB_Stack_v5.0/Src/example/host/hid/mouse/bm/make/host_hid_mouse_twrk70f120m/gcc_arm/MK70FN1M0_HOST_Flash_debug/obj/pit_delay.o
LOAD C:/Freescale_BM_USB_Stack_v5.0/Src/example/host/hid/mouse/bm/make/host_hid_mouse_twrk70f120m/gcc_arm/MK70FN1M0_HOST_Flash_debug/obj/poll.o
LOAD C:/Freescale_BM_USB_Stack_v5.0/Src/example/host/hid/mouse/bm/make/host_hid_mouse_twrk70f120m/gcc_arm/MK70FN1M0_HOST_Flash_debug/obj/printf.o
LOAD C:/Freescale_BM_USB_Stack_v5.0/Src/example/host/hid/mouse/bm/make/host_hid_mouse_twrk70f120m/gcc_arm/MK70FN1M0_HOST_Flash_debug/obj/rtc_kinetis.o
LOAD C:/Freescale_BM_USB_Stack_v5.0/Src/example/host/hid/mouse/bm/make/host_hid_mouse_twrk70f120m/gcc_arm/MK70FN1M0_HOST_Flash_debug/obj/sci.o
LOAD C:/Freescale_BM_USB_Stack_v5.0/Src/example/host/hid/mouse/bm/make/host_hid_mouse_twrk70f120m/gcc_arm/MK70FN1M0_HOST_Flash_debug/obj/soc_init.o
LOAD C:/Freescale_BM_USB_Stack_v5.0/Src/example/host/hid/mouse/bm/make/host_hid_mouse_twrk70f120m/gcc_arm/MK70FN1M0_HOST_Flash_debug/obj/soc_isr.o
LOAD C:/Freescale_BM_USB_Stack_v5.0/Src/example/host/hid/mouse/bm/make/host_hid_mouse_twrk70f120m/gcc_arm/MK70FN1M0_HOST_Flash_debug/obj/soc_pit.o
LOAD C:/Freescale_BM_USB_Stack_v5.0/Src/example/host/hid/mouse/bm/make/host_hid_mouse_twrk70f120m/gcc_arm/MK70FN1M0_HOST_Flash_debug/obj/soc_sci.o
LOAD C:/Freescale_BM_USB_Stack_v5.0/Src/example/host/hid/mouse/bm/make/host_hid_mouse_twrk70f120m/gcc_arm/MK70FN1M0_HOST_Flash_debug/obj/soc_usb.o
LOAD C:/Freescale_BM_USB_Stack_v5.0/Src/example/host/hid/mouse/bm/make/host_hid_mouse_twrk70f120m/gcc_arm/MK70FN1M0_HOST_Flash_debug/obj/startup.o
LOAD C:/Freescale_BM_USB_Stack_v5.0/Src/example/host/hid/mouse/bm/make/host_hid_mouse_twrk70f120m/gcc_arm/MK70FN1M0_HOST_Flash_debug/obj/startup_MK70FN1M012.o
LOAD C:/Freescale_BM_USB_Stack_v5.0/Src/example/host/hid/mouse/bm/make/host_hid_mouse_twrk70f120m/gcc_arm/MK70FN1M0_HOST_Flash_debug/obj/system_MK70FN1M012.o
LOAD C:/Freescale_BM_USB_Stack_v5.0/Src/example/host/hid/mouse/bm/make/host_hid_mouse_twrk70f120m/gcc_arm/MK70FN1M0_HOST_Flash_debug/obj/wdt_kinetis.o
START GROUP
LOAD C:/Freescale_BM_USB_Stack_v5.0/Src/output/twrk70f120m.gcc_arm/debug/usbh/bm/usbh.a
LOAD C:/FREESC~1/CWMCUV~1.7/CROSS_~1/ARM-NO~1/lib/gcc/arm-none-eabi/4.7.3/armv7e-m/softfp/libgcc.a
LOAD C:/FREESC~1/CWMCUV~1.7/CROSS_~1/ARM-NO~1/arm-none-eabi/lib/armv7e-m/softfp/libc.a
LOAD C:/FREESC~1/CWMCUV~1.7/CROSS_~1/ARM-NO~1/arm-none-eabi/lib/armv7e-m/softfp/libsupc++.a
LOAD C:/FREESC~1/CWMCUV~1.7/CROSS_~1/ARM-NO~1/arm-none-eabi/lib/armv7e-m/softfp/libm.a
LOAD C:/FREESC~1/CWMCUV~1.7/CROSS_~1/ARM-NO~1/arm-none-eabi/lib/armv7e-m/softfp/libnosys.a
END GROUP
                0x1fff0000                __VECTOR_RAM = ORIGIN (vectram)

.text           0x00000000    0x16e98
                0x00000000                __VECTOR_TABLE = .
 *(.isr_vector)
 .isr_vector    0x00000000      0x454 C:/Freescale_BM_USB_Stack_v5.0/Src/example/host/hid/mouse/bm/make/host_hid_mouse_twrk70f120m/gcc_arm/MK70FN1M0_HOST_Flash_debug/obj/startup_MK70FN1M012.o
                0x00000000                __isr_vector
                0x00000454                _stext_ = .
 *(.text*)
 .text._bm_event_init
                0x00000454       0x50 C:/Freescale_BM_USB_Stack_v5.0/Src/example/host/hid/mouse/bm/make/host_hid_mouse_twrk70f120m/gcc_arm/MK70FN1M0_HOST_Flash_debug/obj/bmevent.o
                0x00000454                _bm_event_init
 .text._bm_event_set
                0x000004a4       0x40 C:/Freescale_BM_USB_Stack_v5.0/Src/example/host/hid/mouse/bm/make/host_hid_mouse_twrk70f120m/gcc_arm/MK70FN1M0_HOST_Flash_debug/obj/bmevent.o
                0x000004a4                _bm_event_set
 .text._bm_event_clear
                0x000004e4       0x44 C:/Freescale_BM_USB_Stack_v5.0/Src/example/host/hid/mouse/bm/make/host_hid_mouse_twrk70f120m/gcc_arm/MK70FN1M0_HOST_Flash_debug/obj/bmevent.o
                0x000004e4                _bm_event_clear
 .text._bm_event_wait_ticks
                0x00000528       0x40 C:/Freescale_BM_USB_Stack_v5.0/Src/example/host/hid/mouse/bm/make/host_hid_mouse_twrk70f120m/gcc_arm/MK70FN1M0_HOST_Flash_debug/obj/bmevent.o
                0x00000528                _bm_event_wait_ticks
 .text.bm_install_isr
                0x00000568       0x24 C:/Freescale_BM_USB_Stack_v5.0/Src/example/host/hid/mouse/bm/make/host_hid_mouse_twrk70f120m/gcc_arm/MK70FN1M0_HOST_Flash_debug/obj/bmisr.o
                0x00000568                bm_install_isr
 .text.bm_int_init
                0x0000058c       0x2c C:/Freescale_BM_USB_Stack_v5.0/Src/example/host/hid/mouse/bm/make/host_hid_mouse_twrk70f120m/gcc_arm/MK70FN1M0_HOST_Flash_debug/obj/bmisr.o
                0x0000058c                bm_int_init
 .text._bm_msgq_init
                0x000005b8       0xfc C:/Freescale_BM_USB_Stack_v5.0/Src/example/host/hid/mouse/bm/make/host_hid_mouse_twrk70f120m/gcc_arm/MK70FN1M0_HOST_Flash_debug/obj/bmmsgq.o
                0x000005b8                _bm_msgq_init
 .text._bm_msgq_send
                0x000006b4      0x11c C:/Freescale_BM_USB_Stack_v5.0/Src/example/host/hid/mouse/bm/make/host_hid_mouse_twrk70f120m/gcc_arm/MK70FN1M0_HOST_Flash_debug/obj/bmmsgq.o
                0x000006b4                _bm_msgq_send
 .text._bm_msgq_receive
                0x000007d0       0xcc C:/Freescale_BM_USB_Stack_v5.0/Src/example/host/hid/mouse/bm/make/host_hid_mouse_twrk70f120m/gcc_arm/MK70FN1M0_HOST_Flash_debug/obj/bmmsgq.o
                0x000007d0                _bm_msgq_receive
 .text._bm_msgq_deinit
                0x0000089c       0xbc C:/Freescale_BM_USB_Stack_v5.0/Src/example/host/hid/mouse/bm/make/host_hid_mouse_twrk70f120m/gcc_arm/MK70FN1M0_HOST_Flash_debug/obj/bmmsgq.o
                0x0000089c                _bm_msgq_deinit
 .text._bm_sem_create
                0x00000958       0x28 C:/Freescale_BM_USB_Stack_v5.0/Src/example/host/hid/mouse/bm/make/host_hid_mouse_twrk70f120m/gcc_arm/MK70FN1M0_HOST_Flash_debug/obj/bmsem.o
                0x00000958                _bm_sem_create
 .text._bm_sem_post
                0x00000980       0x34 C:/Freescale_BM_USB_Stack_v5.0/Src/example/host/hid/mouse/bm/make/host_hid_mouse_twrk70f120m/gcc_arm/MK70FN1M0_HOST_Flash_debug/obj/bmsem.o
                0x00000980                _bm_sem_post
 .text._bm_sem_wait_ticks
                0x000009b4       0x44 C:/Freescale_BM_USB_Stack_v5.0/Src/example/host/hid/mouse/bm/make/host_hid_mouse_twrk70f120m/gcc_arm/MK70FN1M0_HOST_Flash_debug/obj/bmsem.o
                0x000009b4                _bm_sem_wait_ticks
 .text.mouse_hid_get_interface
                0x000009f8       0x18 C:/Freescale_BM_USB_Stack_v5.0/Src/example/host/hid/mouse/bm/make/host_hid_mouse_twrk70f120m/gcc_arm/MK70FN1M0_HOST_Flash_debug/obj/hidmouse.o
                0x000009f8                mouse_hid_get_interface
 .text.mouse_hid_get_buffer
                0x00000a10       0xf0 C:/Freescale_BM_USB_Stack_v5.0/Src/example/host/hid/mouse/bm/make/host_hid_mouse_twrk70f120m/gcc_arm/MK70FN1M0_HOST_Flash_debug/obj/hidmouse.o
                0x00000a10                mouse_hid_get_buffer
 .text.mouse_hid_get_report_descriptor
                0x00000b00      0x1c4 C:/Freescale_BM_USB_Stack_v5.0/Src/example/host/hid/mouse/bm/make/host_hid_mouse_twrk70f120m/gcc_arm/MK70FN1M0_HOST_Flash_debug/obj/hidmouse.o
                0x00000b00                mouse_hid_get_report_descriptor
 .text.usb_host_hid_mouse_event
                0x00000cc4      0x23c C:/Freescale_BM_USB_Stack_v5.0/Src/example/host/hid/mouse/bm/make/host_hid_mouse_twrk70f120m/gcc_arm/MK70FN1M0_HOST_Flash_debug/obj/hidmouse.o
                0x00000cc4                usb_host_hid_mouse_event
 .text.usb_host_hid_mouse_ctrl_callback
                0x00000f00       0xe8 C:/Freescale_BM_USB_Stack_v5.0/Src/example/host/hid/mouse/bm/make/host_hid_mouse_twrk70f120m/gcc_arm/MK70FN1M0_HOST_Flash_debug/obj/hidmouse.o
                0x00000f00                usb_host_hid_mouse_ctrl_callback
 .text.usb_host_hid_mouse_recv_callback
                0x00000fe8       0x70 C:/Freescale_BM_USB_Stack_v5.0/Src/example/host/hid/mouse/bm/make/host_hid_mouse_twrk70f120m/gcc_arm/MK70FN1M0_HOST_Flash_debug/obj/hidmouse.o
                0x00000fe8                usb_host_hid_mouse_recv_callback
 .text.process_mouse_buffer
                0x00001058      0x15c C:/Freescale_BM_USB_Stack_v5.0/Src/example/host/hid/mouse/bm/make/host_hid_mouse_twrk70f120m/gcc_arm/MK70FN1M0_HOST_Flash_debug/obj/hidmouse.o
                0x00001058                process_mouse_buffer
 .text.usb_host_hid_unsupported_device_event
                0x000011b4       0xa0 C:/Freescale_BM_USB_Stack_v5.0/Src/example/host/hid/mouse/bm/make/host_hid_mouse_twrk70f120m/gcc_arm/MK70FN1M0_HOST_Flash_debug/obj/hidmouse.o
                0x000011b4                usb_host_hid_unsupported_device_event
 .text.APP_init
                0x00001254      0x108 C:/Freescale_BM_USB_Stack_v5.0/Src/example/host/hid/mouse/bm/make/host_hid_mouse_twrk70f120m/gcc_arm/MK70FN1M0_HOST_Flash_debug/obj/hidmouse.o
                0x00001254                APP_init
 .text.APP_task
                0x0000135c      0x5c8 C:/Freescale_BM_USB_Stack_v5.0/Src/example/host/hid/mouse/bm/make/host_hid_mouse_twrk70f120m/gcc_arm/MK70FN1M0_HOST_Flash_debug/obj/hidmouse.o
                0x0000135c                APP_task
 .text.bsp_serial_io_init
                0x00001924       0xb4 C:/Freescale_BM_USB_Stack_v5.0/Src/example/host/hid/mouse/bm/make/host_hid_mouse_twrk70f120m/gcc_arm/MK70FN1M0_HOST_Flash_debug/obj/init_gpio.o
                0x00001924                bsp_serial_io_init
 .text.main     0x000019d8       0x30 C:/Freescale_BM_USB_Stack_v5.0/Src/example/host/hid/mouse/bm/make/host_hid_mouse_twrk70f120m/gcc_arm/MK70FN1M0_HOST_Flash_debug/obj/main_kinetis.o
                0x000019d8                main
 .text.BM_mem_alloc_word_aligned
                0x00001a08       0x30 C:/Freescale_BM_USB_Stack_v5.0/Src/example/host/hid/mouse/bm/make/host_hid_mouse_twrk70f120m/gcc_arm/MK70FN1M0_HOST_Flash_debug/obj/mem_util.o
                0x00001a08                BM_mem_alloc_word_aligned
 .text.BM_mem_alloc_zero
                0x00001a38       0x30 C:/Freescale_BM_USB_Stack_v5.0/Src/example/host/hid/mouse/bm/make/host_hid_mouse_twrk70f120m/gcc_arm/MK70FN1M0_HOST_Flash_debug/obj/mem_util.o
                0x00001a38                BM_mem_alloc_zero
 .text.BM_mem_free
                0x00001a68       0x18 C:/Freescale_BM_USB_Stack_v5.0/Src/example/host/hid/mouse/bm/make/host_hid_mouse_twrk70f120m/gcc_arm/MK70FN1M0_HOST_Flash_debug/obj/mem_util.o
                0x00001a68                BM_mem_free
 .text.nvic_int_init
                0x00001a80       0xbc C:/Freescale_BM_USB_Stack_v5.0/Src/example/host/hid/mouse/bm/make/host_hid_mouse_twrk70f120m/gcc_arm/MK70FN1M0_HOST_Flash_debug/obj/nvic.o
                0x00001a80                nvic_int_init
 .text.nvic_int_enable
                0x00001b3c       0x5c C:/Freescale_BM_USB_Stack_v5.0/Src/example/host/hid/mouse/bm/make/host_hid_mouse_twrk70f120m/gcc_arm/MK70FN1M0_HOST_Flash_debug/obj/nvic.o
                0x00001b3c                nvic_int_enable
 .text.nvic_int_disable
                0x00001b98       0x60 C:/Freescale_BM_USB_Stack_v5.0/Src/example/host/hid/mouse/bm/make/host_hid_mouse_twrk70f120m/gcc_arm/MK70FN1M0_HOST_Flash_debug/obj/nvic.o
                0x00001b98                nvic_int_disable
 .text.sys_lock
                0x00001bf8       0x34 C:/Freescale_BM_USB_Stack_v5.0/Src/example/host/hid/mouse/bm/make/host_hid_mouse_twrk70f120m/gcc_arm/MK70FN1M0_HOST_Flash_debug/obj/nvic.o
                0x00001bf8                sys_lock
 .text.sys_unlock
                0x00001c2c       0x40 C:/Freescale_BM_USB_Stack_v5.0/Src/example/host/hid/mouse/bm/make/host_hid_mouse_twrk70f120m/gcc_arm/MK70FN1M0_HOST_Flash_debug/obj/nvic.o
                0x00001c2c                sys_unlock
 .text.delay_init
                0x00001c6c       0x6c C:/Freescale_BM_USB_Stack_v5.0/Src/example/host/hid/mouse/bm/make/host_hid_mouse_twrk70f120m/gcc_arm/MK70FN1M0_HOST_Flash_debug/obj/pit_delay.o
                0x00001c6c                delay_init
 .text.delay_isr
                0x00001cd8       0x70 C:/Freescale_BM_USB_Stack_v5.0/Src/example/host/hid/mouse/bm/make/host_hid_mouse_twrk70f120m/gcc_arm/MK70FN1M0_HOST_Flash_debug/obj/pit_delay.o
 .text.time_delay
                0x00001d48       0x4c C:/Freescale_BM_USB_Stack_v5.0/Src/example/host/hid/mouse/bm/make/host_hid_mouse_twrk70f120m/gcc_arm/MK70FN1M0_HOST_Flash_debug/obj/pit_delay.o
                0x00001d48                time_delay
 .text.delay    0x00001d94       0x3c C:/Freescale_BM_USB_Stack_v5.0/Src/example/host/hid/mouse/bm/make/host_hid_mouse_twrk70f120m/gcc_arm/MK70FN1M0_HOST_Flash_debug/obj/pit_delay.o
                0x00001d94                delay
 .text.POLL_init
                0x00001dd0       0x60 C:/Freescale_BM_USB_Stack_v5.0/Src/example/host/hid/mouse/bm/make/host_hid_mouse_twrk70f120m/gcc_arm/MK70FN1M0_HOST_Flash_debug/obj/poll.o
                0x00001dd0                POLL_init
 .text.POLL_register
                0x00001e30       0x94 C:/Freescale_BM_USB_Stack_v5.0/Src/example/host/hid/mouse/bm/make/host_hid_mouse_twrk70f120m/gcc_arm/MK70FN1M0_HOST_Flash_debug/obj/poll.o
                0x00001e30                POLL_register
 .text.Poll     0x00001ec4       0x54 C:/Freescale_BM_USB_Stack_v5.0/Src/example/host/hid/mouse/bm/make/host_hid_mouse_twrk70f120m/gcc_arm/MK70FN1M0_HOST_Flash_debug/obj/poll.o
                0x00001ec4                Poll
 .text.POLL_unregister
                0x00001f18      0x1f0 C:/Freescale_BM_USB_Stack_v5.0/Src/example/host/hid/mouse/bm/make/host_hid_mouse_twrk70f120m/gcc_arm/MK70FN1M0_HOST_Flash_debug/obj/poll.o
                0x00001f18                POLL_unregister
 .text.printk_putc
                0x00002108       0x58 C:/Freescale_BM_USB_Stack_v5.0/Src/example/host/hid/mouse/bm/make/host_hid_mouse_twrk70f120m/gcc_arm/MK70FN1M0_HOST_Flash_debug/obj/printf.o
 .text.printk_mknumstr
                0x00002160      0x120 C:/Freescale_BM_USB_Stack_v5.0/Src/example/host/hid/mouse/bm/make/host_hid_mouse_twrk70f120m/gcc_arm/MK70FN1M0_HOST_Flash_debug/obj/printf.o
 .text.printk_pad_zero
                0x00002280       0x38 C:/Freescale_BM_USB_Stack_v5.0/Src/example/host/hid/mouse/bm/make/host_hid_mouse_twrk70f120m/gcc_arm/MK70FN1M0_HOST_Flash_debug/obj/printf.o
 .text.printk_pad_space
                0x000022b8       0x38 C:/Freescale_BM_USB_Stack_v5.0/Src/example/host/hid/mouse/bm/make/host_hid_mouse_twrk70f120m/gcc_arm/MK70FN1M0_HOST_Flash_debug/obj/printf.o
 .text.printk   0x000022f0      0x6cc C:/Freescale_BM_USB_Stack_v5.0/Src/example/host/hid/mouse/bm/make/host_hid_mouse_twrk70f120m/gcc_arm/MK70FN1M0_HOST_Flash_debug/obj/printf.o
                0x000022f0                printk
 .text.printf_kinetis
                0x000029bc       0x40 C:/Freescale_BM_USB_Stack_v5.0/Src/example/host/hid/mouse/bm/make/host_hid_mouse_twrk70f120m/gcc_arm/MK70FN1M0_HOST_Flash_debug/obj/printf.o
                0x000029bc                printf_kinetis
 .text.TimerQInitialize
                0x000029fc       0x30 C:/Freescale_BM_USB_Stack_v5.0/Src/example/host/hid/mouse/bm/make/host_hid_mouse_twrk70f120m/gcc_arm/MK70FN1M0_HOST_Flash_debug/obj/rtc_kinetis.o
                0x000029fc                TimerQInitialize
 .text.TimerInit
                0x00002a2c       0x74 C:/Freescale_BM_USB_Stack_v5.0/Src/example/host/hid/mouse/bm/make/host_hid_mouse_twrk70f120m/gcc_arm/MK70FN1M0_HOST_Flash_debug/obj/rtc_kinetis.o
 .text.real_timer_isr
                0x00002aa0       0xb8 C:/Freescale_BM_USB_Stack_v5.0/Src/example/host/hid/mouse/bm/make/host_hid_mouse_twrk70f120m/gcc_arm/MK70FN1M0_HOST_Flash_debug/obj/rtc_kinetis.o
                0x00002aa0                real_timer_isr
 .text.sci_init
                0x00002b58       0xc4 C:/Freescale_BM_USB_Stack_v5.0/Src/example/host/hid/mouse/bm/make/host_hid_mouse_twrk70f120m/gcc_arm/MK70FN1M0_HOST_Flash_debug/obj/sci.o
                0x00002b58                sci_init
 .text.uart_putchar
                0x00002c1c       0x3c C:/Freescale_BM_USB_Stack_v5.0/Src/example/host/hid/mouse/bm/make/host_hid_mouse_twrk70f120m/gcc_arm/MK70FN1M0_HOST_Flash_debug/obj/sci.o
                0x00002c1c                uart_putchar
 .text.out_char
                0x00002c58       0x1c C:/Freescale_BM_USB_Stack_v5.0/Src/example/host/hid/mouse/bm/make/host_hid_mouse_twrk70f120m/gcc_arm/MK70FN1M0_HOST_Flash_debug/obj/sci.o
                0x00002c58                out_char
 .text.SYS_Init
                0x00002c74      0x1e0 C:/Freescale_BM_USB_Stack_v5.0/Src/example/host/hid/mouse/bm/make/host_hid_mouse_twrk70f120m/gcc_arm/MK70FN1M0_HOST_Flash_debug/obj/soc_init.o
                0x00002c74                SYS_Init
 .text.pll_init
                0x00002e54      0xa70 C:/Freescale_BM_USB_Stack_v5.0/Src/example/host/hid/mouse/bm/make/host_hid_mouse_twrk70f120m/gcc_arm/MK70FN1M0_HOST_Flash_debug/obj/soc_init.o
 .text.trace_clk_init
                0x000038c4       0x48 C:/Freescale_BM_USB_Stack_v5.0/Src/example/host/hid/mouse/bm/make/host_hid_mouse_twrk70f120m/gcc_arm/MK70FN1M0_HOST_Flash_debug/obj/soc_init.o
 .text.fb_clk_init
                0x0000390c       0x48 C:/Freescale_BM_USB_Stack_v5.0/Src/example/host/hid/mouse/bm/make/host_hid_mouse_twrk70f120m/gcc_arm/MK70FN1M0_HOST_Flash_debug/obj/soc_init.o
 .text.soc_install_isr
                0x00003954       0xac C:/Freescale_BM_USB_Stack_v5.0/Src/example/host/hid/mouse/bm/make/host_hid_mouse_twrk70f120m/gcc_arm/MK70FN1M0_HOST_Flash_debug/obj/soc_isr.o
                0x00003954                soc_install_isr
 .text.USB_ISR  0x00003a00       0x2c C:/Freescale_BM_USB_Stack_v5.0/Src/example/host/hid/mouse/bm/make/host_hid_mouse_twrk70f120m/gcc_arm/MK70FN1M0_HOST_Flash_debug/obj/soc_isr.o
                0x00003a00                USB_ISR
 .text.USBHS_ISR
                0x00003a2c       0x2c C:/Freescale_BM_USB_Stack_v5.0/Src/example/host/hid/mouse/bm/make/host_hid_mouse_twrk70f120m/gcc_arm/MK70FN1M0_HOST_Flash_debug/obj/soc_isr.o
                0x00003a2c                USBHS_ISR
 .text.PIT0_ISR
                0x00003a58       0x24 C:/Freescale_BM_USB_Stack_v5.0/Src/example/host/hid/mouse/bm/make/host_hid_mouse_twrk70f120m/gcc_arm/MK70FN1M0_HOST_Flash_debug/obj/soc_isr.o
                0x00003a58                PIT0_ISR
 .text.PIT1_ISR
                0x00003a7c       0x24 C:/Freescale_BM_USB_Stack_v5.0/Src/example/host/hid/mouse/bm/make/host_hid_mouse_twrk70f120m/gcc_arm/MK70FN1M0_HOST_Flash_debug/obj/soc_isr.o
                0x00003a7c                PIT1_ISR
 .text.PORTB_ISR
                0x00003aa0        0xc C:/Freescale_BM_USB_Stack_v5.0/Src/example/host/hid/mouse/bm/make/host_hid_mouse_twrk70f120m/gcc_arm/MK70FN1M0_HOST_Flash_debug/obj/soc_isr.o
                0x00003aa0                PORTB_ISR
 .text.I2S0_TX_ISR
                0x00003aac        0xc C:/Freescale_BM_USB_Stack_v5.0/Src/example/host/hid/mouse/bm/make/host_hid_mouse_twrk70f120m/gcc_arm/MK70FN1M0_HOST_Flash_debug/obj/soc_isr.o
                0x00003aac                I2S0_TX_ISR
 .text.UART2_ISR
                0x00003ab8       0x2c C:/Freescale_BM_USB_Stack_v5.0/Src/example/host/hid/mouse/bm/make/host_hid_mouse_twrk70f120m/gcc_arm/MK70FN1M0_HOST_Flash_debug/obj/soc_isr.o
                0x00003ab8                UART2_ISR
 .text.pit_get_vector
                0x00003ae4       0x34 C:/Freescale_BM_USB_Stack_v5.0/Src/example/host/hid/mouse/bm/make/host_hid_mouse_twrk70f120m/gcc_arm/MK70FN1M0_HOST_Flash_debug/obj/soc_pit.o
                0x00003ae4                pit_get_vector
 .text.pit_init_freq
                0x00003b18       0xac C:/Freescale_BM_USB_Stack_v5.0/Src/example/host/hid/mouse/bm/make/host_hid_mouse_twrk70f120m/gcc_arm/MK70FN1M0_HOST_Flash_debug/obj/soc_pit.o
                0x00003b18                pit_init_freq
 .text.pit_mask_int
                0x00003bc4       0x6c C:/Freescale_BM_USB_Stack_v5.0/Src/example/host/hid/mouse/bm/make/host_hid_mouse_twrk70f120m/gcc_arm/MK70FN1M0_HOST_Flash_debug/obj/soc_pit.o
                0x00003bc4                pit_mask_int
 .text.pit_unmask_int
                0x00003c30       0x6c C:/Freescale_BM_USB_Stack_v5.0/Src/example/host/hid/mouse/bm/make/host_hid_mouse_twrk70f120m/gcc_arm/MK70FN1M0_HOST_Flash_debug/obj/soc_pit.o
                0x00003c30                pit_unmask_int
 .text.pit_check_int_flag
                0x00003c9c       0x3c C:/Freescale_BM_USB_Stack_v5.0/Src/example/host/hid/mouse/bm/make/host_hid_mouse_twrk70f120m/gcc_arm/MK70FN1M0_HOST_Flash_debug/obj/soc_pit.o
                0x00003c9c                pit_check_int_flag
 .text.pit_clear_int
                0x00003cd8       0x44 C:/Freescale_BM_USB_Stack_v5.0/Src/example/host/hid/mouse/bm/make/host_hid_mouse_twrk70f120m/gcc_arm/MK70FN1M0_HOST_Flash_debug/obj/soc_pit.o
                0x00003cd8                pit_clear_int
 .text._bsp_get_serial_base_address
                0x00003d1c       0x8c C:/Freescale_BM_USB_Stack_v5.0/Src/example/host/hid/mouse/bm/make/host_hid_mouse_twrk70f120m/gcc_arm/MK70FN1M0_HOST_Flash_debug/obj/soc_sci.o
                0x00003d1c                _bsp_get_serial_base_address
 .text.soc_get_usb_base_address
                0x00003da8       0x30 C:/Freescale_BM_USB_Stack_v5.0/Src/example/host/hid/mouse/bm/make/host_hid_mouse_twrk70f120m/gcc_arm/MK70FN1M0_HOST_Flash_debug/obj/soc_usb.o
                0x00003da8                soc_get_usb_base_address
 .text.soc_get_usb_vector_number
                0x00003dd8       0x28 C:/Freescale_BM_USB_Stack_v5.0/Src/example/host/hid/mouse/bm/make/host_hid_mouse_twrk70f120m/gcc_arm/MK70FN1M0_HOST_Flash_debug/obj/soc_usb.o
                0x00003dd8                soc_get_usb_vector_number
 .text.init_data_bss
                0x00003e00      0x108 C:/Freescale_BM_USB_Stack_v5.0/Src/example/host/hid/mouse/bm/make/host_hid_mouse_twrk70f120m/gcc_arm/MK70FN1M0_HOST_Flash_debug/obj/startup.o
                0x00003e00                init_data_bss
 .text          0x00003f08      0x110 C:/Freescale_BM_USB_Stack_v5.0/Src/example/host/hid/mouse/bm/make/host_hid_mouse_twrk70f120m/gcc_arm/MK70FN1M0_HOST_Flash_debug/obj/startup_MK70FN1M012.o
                0x00003f08                Reset_Handler
                0x00003f34                NMI_Handler
                0x00003f36                HardFault_Handler
                0x00003f38                MemManage_Handler
                0x00003f3a                BusFault_Handler
                0x00003f3c                UsageFault_Handler
                0x00003f3e                SVC_Handler
                0x00003f40                DebugMon_Handler
                0x00003f42                PendSV_Handler
                0x00003f44                SysTick_Handler
                0x00003f46                Default_Handler
                0x00003f48                DMA0_IRQHandler
                0x00003f4a                DMA1_IRQHandler
                0x00003f4c                DMA2_IRQHandler
                0x00003f4e                DMA3_IRQHandler
                0x00003f50                DMA4_IRQHandler
                0x00003f52                DMA5_IRQHandler
                0x00003f54                DMA6_IRQHandler
                0x00003f56                DMA7_IRQHandler
                0x00003f58                DMA8_IRQHandler
                0x00003f5a                DMA9_IRQHandler
                0x00003f5c                DMA10_IRQHandler
                0x00003f5e                DMA11_IRQHandler
                0x00003f60                DMA12_IRQHandler
                0x00003f62                DMA13_IRQHandler
                0x00003f64                DMA14_IRQHandler
                0x00003f66                DMA15_IRQHandler
                0x00003f68                DMA_Error_IRQHandler
                0x00003f6a                MCM_IRQHandler
                0x00003f6c                FTF_IRQHandler
                0x00003f6e                Read_Collision_IRQHandler
                0x00003f70                LVD_LVW_IRQHandler
                0x00003f72                LLW_IRQHandler
                0x00003f74                Watchdog_IRQHandler
                0x00003f76                RNG_IRQHandler
                0x00003f78                I2C0_IRQHandler
                0x00003f7a                I2C1_IRQHandler
                0x00003f7c                SPI0_IRQHandler
                0x00003f7e                SPI1_IRQHandler
                0x00003f80                SPI2_IRQHandler
                0x00003f82                CAN0_MESS_IRQHandler
                0x00003f84                CAN0_BUS_OFF_IRQHandler
                0x00003f86                CAN0_ERR_IRQHandler
                0x00003f88                CAN0_TW_IRQHandler
                0x00003f8a                CAN0_RW_IRQHandler
                0x00003f8c                CAN0_WAKE_UP_IRQHandler
                0x00003f8e                I2S0_Transmit
                0x00003f90                I2S0_Receive
                0x00003f92                CAN0_IMEU_IRQHandler
                0x00003f94                CAN0_LR_IRQHandler
                0x00003f96                CAN1_MESS_IRQHandler
                0x00003f98                CAN1_BUS_OFF_IRQHandler
                0x00003f9a                CAN1_ERR_IRQHandler
                0x00003f9c                CAN1_TW_IRQHandler
                0x00003f9e                CAN1_RW_IRQHandler
                0x00003fa0                CAN1_WAKE_UP_IRQHandler
                0x00003fa2                UART0_LON_sources
                0x00003fa4                CAN1_LR_IRQHandler
                0x00003fa6                UART0_IRQHandler
                0x00003fa8                UART0_ERR_IRQHandler
                0x00003faa                UART1_IRQHandler
                0x00003fac                UART1_ERR_IRQHandler
                0x00003fae                UART2_IRQHandler
                0x00003fb0                UART2_ERR_IRQHandler
                0x00003fb2                UART3_IRQHandler
                0x00003fb4                UART3_ERR_IRQHandler
                0x00003fb6                UART4_IRQHandler
                0x00003fb8                UART4_ERR_IRQHandler
                0x00003fba                UART5_IRQHandler
                0x00003fbc                UART5_ERR_IRQHandler
                0x00003fbe                ADC0_IRQHandler
                0x00003fc0                ADC1_IRQHandler
                0x00003fc2                CMP0_IRQHandler
                0x00003fc4                CMP1_IRQHandler
                0x00003fc6                CMP2_IRQHandler
                0x00003fc8                FTM0_IRQHandler
                0x00003fca                FTM1_IRQHandler
                0x00003fcc                FTM2_IRQHandler
                0x00003fce                CMT_IRQHandler
                0x00003fd0                RTC_IRQHandler
                0x00003fd2                RTC_Seconds_IRQHandler
                0x00003fd8                PIT2_IRQHandler
                0x00003fda                PIT3_IRQHandler
                0x00003fdc                PDB0_IRQHandler
                0x00003fe0                USB_CD_IRQHandler
                0x00003fe2                I2S_IRQHandler
                0x00003fe4                SDHC_IRQHandler
                0x00003fe6                DAC0_IRQHandler
                0x00003fe8                DAC1_IRQHandler
                0x00003fea                TSI_IRQHandler
                0x00003fec                MCG_IRQHandler
                0x00003fee                LPTimer_IRQHandler
                0x00003ff0                LCD_IRQHandler
                0x00003ff2                PORTA_IRQHandler
                0x00003ff6                PORTB_IRQHandler
                0x00003ff8                PORTC_IRQHandler
                0x00003ffa                PORTD_IRQHandler
                0x00003ffc                PORTE_IRQHandler
                0x00003ffe                Software_IRQHandler
                0x00004000                NFC_IRQHandler
                0x00004002                USBHS_IRQHandler
                0x00004004                GLCD_IRQHandler
                0x00004006                CMP3_IRQHandler
                0x00004008                Tamper_IRQHandler
                0x0000400a                FTM3_IRQHandler
                0x0000400c                ADC2_IRQHandler
                0x0000400e                ADC3_IRQHandler
                0x00004010                I2S1_Tx_IRQHandler
                0x00004012                I2S2_Rx_IRQHandler
                0x00004014                Reserved101_IRQHandler
                0x00004016                DefaultISR
 .text.SystemInit
                0x00004018       0x34 C:/Freescale_BM_USB_Stack_v5.0/Src/example/host/hid/mouse/bm/make/host_hid_mouse_twrk70f120m/gcc_arm/MK70FN1M0_HOST_Flash_debug/obj/system_MK70FN1M012.o
                0x00004018                SystemInit
 .text.OS_Task_create
                0x0000404c       0x58 C:/Freescale_BM_USB_Stack_v5.0/Src/output/twrk70f120m.gcc_arm/debug/usbh/bm/usbh.a(adapter_bm.o)
                0x0000404c                OS_Task_create
 .text.OS_Task_delete
                0x000040a4       0x94 C:/Freescale_BM_USB_Stack_v5.0/Src/output/twrk70f120m.gcc_arm/debug/usbh/bm/usbh.a(adapter_bm.o)
                0x000040a4                OS_Task_delete
 .text.OS_Event_create
                0x00004138       0x44 C:/Freescale_BM_USB_Stack_v5.0/Src/output/twrk70f120m.gcc_arm/debug/usbh/bm/usbh.a(adapter_bm.o)
                0x00004138                OS_Event_create
 .text.OS_Event_destroy
                0x0000417c       0x28 C:/Freescale_BM_USB_Stack_v5.0/Src/output/twrk70f120m.gcc_arm/debug/usbh/bm/usbh.a(adapter_bm.o)
                0x0000417c                OS_Event_destroy
 .text.OS_Event_check_bit
                0x000041a4       0x20 C:/Freescale_BM_USB_Stack_v5.0/Src/output/twrk70f120m.gcc_arm/debug/usbh/bm/usbh.a(adapter_bm.o)
                0x000041a4                OS_Event_check_bit
 .text.OS_Event_wait
                0x000041c4       0x94 C:/Freescale_BM_USB_Stack_v5.0/Src/output/twrk70f120m.gcc_arm/debug/usbh/bm/usbh.a(adapter_bm.o)
                0x000041c4                OS_Event_wait
 .text.OS_MsgQ_send
                0x00004258       0x30 C:/Freescale_BM_USB_Stack_v5.0/Src/output/twrk70f120m.gcc_arm/debug/usbh/bm/usbh.a(adapter_bm.o)
                0x00004258                OS_MsgQ_send
 .text.OS_MsgQ_recv
                0x00004288       0x30 C:/Freescale_BM_USB_Stack_v5.0/Src/output/twrk70f120m.gcc_arm/debug/usbh/bm/usbh.a(adapter_bm.o)
                0x00004288                OS_MsgQ_recv
 .text.OS_MsgQ_Is_Empty
                0x000042b8       0x40 C:/Freescale_BM_USB_Stack_v5.0/Src/output/twrk70f120m.gcc_arm/debug/usbh/bm/usbh.a(adapter_bm.o)
                0x000042b8                OS_MsgQ_Is_Empty
 .text.OS_Mutex_create
                0x000042f8       0x10 C:/Freescale_BM_USB_Stack_v5.0/Src/output/twrk70f120m.gcc_arm/debug/usbh/bm/usbh.a(adapter_bm.o)
                0x000042f8                OS_Mutex_create
 .text.OS_Mutex_lock
                0x00004308       0x18 C:/Freescale_BM_USB_Stack_v5.0/Src/output/twrk70f120m.gcc_arm/debug/usbh/bm/usbh.a(adapter_bm.o)
                0x00004308                OS_Mutex_lock
 .text.OS_Mutex_unlock
                0x00004320       0x18 C:/Freescale_BM_USB_Stack_v5.0/Src/output/twrk70f120m.gcc_arm/debug/usbh/bm/usbh.a(adapter_bm.o)
                0x00004320                OS_Mutex_unlock
 .text.OS_Mutex_destroy
                0x00004338       0x18 C:/Freescale_BM_USB_Stack_v5.0/Src/output/twrk70f120m.gcc_arm/debug/usbh/bm/usbh.a(adapter_bm.o)
                0x00004338                OS_Mutex_destroy
 .text.OS_Gpio_init
                0x00004350       0x1c C:/Freescale_BM_USB_Stack_v5.0/Src/output/twrk70f120m.gcc_arm/debug/usbh/bm/usbh.a(adapter_bm.o)
                0x00004350                OS_Gpio_init
 .text.OS_Gpio_set_functionality
                0x0000436c       0x1c C:/Freescale_BM_USB_Stack_v5.0/Src/output/twrk70f120m.gcc_arm/debug/usbh/bm/usbh.a(adapter_bm.o)
                0x0000436c                OS_Gpio_set_functionality
 .text.OS_Gpio_set_value
                0x00004388       0x1c C:/Freescale_BM_USB_Stack_v5.0/Src/output/twrk70f120m.gcc_arm/debug/usbh/bm/usbh.a(adapter_bm.o)
                0x00004388                OS_Gpio_set_value
 .text.OS_Sem_create
                0x000043a4       0x4c C:/Freescale_BM_USB_Stack_v5.0/Src/output/twrk70f120m.gcc_arm/debug/usbh/bm/usbh.a(adapter_bm.o)
                0x000043a4                OS_Sem_create
 .text.OS_Sem_wait
                0x000043f0       0x8c C:/Freescale_BM_USB_Stack_v5.0/Src/output/twrk70f120m.gcc_arm/debug/usbh/bm/usbh.a(adapter_bm.o)
                0x000043f0                OS_Sem_wait
 .text.USB_log_error
                0x0000447c       0x1c C:/Freescale_BM_USB_Stack_v5.0/Src/output/twrk70f120m.gcc_arm/debug/usbh/bm/usbh.a(usb_host.o)
                0x0000447c                USB_log_error
 .text._usb_host_get_handle
                0x00004498       0xa4 C:/Freescale_BM_USB_Stack_v5.0/Src/output/twrk70f120m.gcc_arm/debug/usbh/bm/usbh.a(usb_host.o)
 .text._usb_host_release_handle
                0x0000453c       0x20 C:/Freescale_BM_USB_Stack_v5.0/Src/output/twrk70f120m.gcc_arm/debug/usbh/bm/usbh.a(usb_host.o)
 .text._usb_host_get_api
                0x0000455c       0x3c C:/Freescale_BM_USB_Stack_v5.0/Src/output/twrk70f120m.gcc_arm/debug/usbh/bm/usbh.a(usb_host.o)
 .text._usb_host_link_tr
                0x00004598       0x88 C:/Freescale_BM_USB_Stack_v5.0/Src/output/twrk70f120m.gcc_arm/debug/usbh/bm/usbh.a(usb_host.o)
                0x00004598                _usb_host_link_tr
 .text._usb_host_unlink_tr
                0x00004620       0xc8 C:/Freescale_BM_USB_Stack_v5.0/Src/output/twrk70f120m.gcc_arm/debug/usbh/bm/usbh.a(usb_host.o)
                0x00004620                _usb_host_unlink_tr
 .text._usb_host_update_max_packet_size_call_interface
                0x000046e8       0x50 C:/Freescale_BM_USB_Stack_v5.0/Src/output/twrk70f120m.gcc_arm/debug/usbh/bm/usbh.a(usb_host.o)
                0x000046e8                _usb_host_update_max_packet_size_call_interface
 .text._usb_host_update_device_address_call_interface
                0x00004738       0x50 C:/Freescale_BM_USB_Stack_v5.0/Src/output/twrk70f120m.gcc_arm/debug/usbh/bm/usbh.a(usb_host.o)
                0x00004738                _usb_host_update_device_address_call_interface
 .text._usb_host_call_service
                0x00004788       0x8c C:/Freescale_BM_USB_Stack_v5.0/Src/output/twrk70f120m.gcc_arm/debug/usbh/bm/usbh.a(usb_host.o)
                0x00004788                _usb_host_call_service
 .text.usb_host_init
                0x00004814      0x248 C:/Freescale_BM_USB_Stack_v5.0/Src/output/twrk70f120m.gcc_arm/debug/usbh/bm/usbh.a(usb_host.o)
                0x00004814                usb_host_init
 .text.usb_host_open_pipe
                0x00004a5c       0x54 C:/Freescale_BM_USB_Stack_v5.0/Src/output/twrk70f120m.gcc_arm/debug/usbh/bm/usbh.a(usb_host.o)
                0x00004a5c                usb_host_open_pipe
 .text.usb_host_close_pipe
                0x00004ab0       0x50 C:/Freescale_BM_USB_Stack_v5.0/Src/output/twrk70f120m.gcc_arm/debug/usbh/bm/usbh.a(usb_host.o)
                0x00004ab0                usb_host_close_pipe
 .text.usb_host_send_setup
                0x00004b00       0xd0 C:/Freescale_BM_USB_Stack_v5.0/Src/output/twrk70f120m.gcc_arm/debug/usbh/bm/usbh.a(usb_host.o)
                0x00004b00                usb_host_send_setup
 .text.usb_host_recv_data
                0x00004bd0       0xb8 C:/Freescale_BM_USB_Stack_v5.0/Src/output/twrk70f120m.gcc_arm/debug/usbh/bm/usbh.a(usb_host.o)
                0x00004bd0                usb_host_recv_data
 .text.usb_host_cancel
                0x00004c88       0x54 C:/Freescale_BM_USB_Stack_v5.0/Src/output/twrk70f120m.gcc_arm/debug/usbh/bm/usbh.a(usb_host.o)
                0x00004c88                usb_host_cancel
 .text.usb_host_open_dev_interface
                0x00004cdc      0x1ac C:/Freescale_BM_USB_Stack_v5.0/Src/output/twrk70f120m.gcc_arm/debug/usbh/bm/usbh.a(usb_host.o)
                0x00004cdc                usb_host_open_dev_interface
 .text.usb_host_close_dev_interface
                0x00004e88      0x160 C:/Freescale_BM_USB_Stack_v5.0/Src/output/twrk70f120m.gcc_arm/debug/usbh/bm/usbh.a(usb_host.o)
                0x00004e88                usb_host_close_dev_interface
 .text.usb_host_register_unsupported_device_notify
                0x00004fe8       0x54 C:/Freescale_BM_USB_Stack_v5.0/Src/output/twrk70f120m.gcc_arm/debug/usbh/bm/usbh.a(usb_host.o)
                0x00004fe8                usb_host_register_unsupported_device_notify
 .text.usb_host_register_driver_info
                0x0000503c       0x54 C:/Freescale_BM_USB_Stack_v5.0/Src/output/twrk70f120m.gcc_arm/debug/usbh/bm/usbh.a(usb_host.o)
                0x0000503c                usb_host_register_driver_info
 .text.usb_host_get_tr
                0x00005090      0x1b0 C:/Freescale_BM_USB_Stack_v5.0/Src/output/twrk70f120m.gcc_arm/debug/usbh/bm/usbh.a(usb_host.o)
                0x00005090                usb_host_get_tr
 .text.usb_host_release_tr
                0x00005240      0x188 C:/Freescale_BM_USB_Stack_v5.0/Src/output/twrk70f120m.gcc_arm/debug/usbh/bm/usbh.a(usb_host.o)
                0x00005240                usb_host_release_tr
 .text.bsp_usb_host_io_init
                0x000053c8      0x420 C:/Freescale_BM_USB_Stack_v5.0/Src/output/twrk70f120m.gcc_arm/debug/usbh/bm/usbh.a(usb_host_bsp.o)
 .text.bsp_usb_host_init
                0x000057e8       0xec C:/Freescale_BM_USB_Stack_v5.0/Src/output/twrk70f120m.gcc_arm/debug/usbh/bm/usbh.a(usb_host_bsp.o)
                0x000057e8                bsp_usb_host_init
 .text.usb_host_cntrl_transaction_done
                0x000058d4      0x574 C:/Freescale_BM_USB_Stack_v5.0/Src/output/twrk70f120m.gcc_arm/debug/usbh/bm/usbh.a(usb_host_ch9.o)
 .text.usb_host_ch9_dev_req
                0x00005e48      0x120 C:/Freescale_BM_USB_Stack_v5.0/Src/output/twrk70f120m.gcc_arm/debug/usbh/bm/usbh.a(usb_host_ch9.o)
 .text._usb_host_ch9_clear_feature
                0x00005f68       0xc4 C:/Freescale_BM_USB_Stack_v5.0/Src/output/twrk70f120m.gcc_arm/debug/usbh/bm/usbh.a(usb_host_ch9.o)
                0x00005f68                _usb_host_ch9_clear_feature
 .text._usb_host_ch9_get_descriptor
                0x0000602c       0x74 C:/Freescale_BM_USB_Stack_v5.0/Src/output/twrk70f120m.gcc_arm/debug/usbh/bm/usbh.a(usb_host_ch9.o)
                0x0000602c                _usb_host_ch9_get_descriptor
 .text._usb_host_ch9_set_address
                0x000060a0       0x90 C:/Freescale_BM_USB_Stack_v5.0/Src/output/twrk70f120m.gcc_arm/debug/usbh/bm/usbh.a(usb_host_ch9.o)
                0x000060a0                _usb_host_ch9_set_address
 .text._usb_host_ch9_set_configuration
                0x00006130       0x8c C:/Freescale_BM_USB_Stack_v5.0/Src/output/twrk70f120m.gcc_arm/debug/usbh/bm/usbh.a(usb_host_ch9.o)
                0x00006130                _usb_host_ch9_set_configuration
 .text._usb_host_ch9_set_interface
                0x000061bc       0xa0 C:/Freescale_BM_USB_Stack_v5.0/Src/output/twrk70f120m.gcc_arm/debug/usbh/bm/usbh.a(usb_host_ch9.o)
                0x000061bc                _usb_host_ch9_set_interface
 .text.usb_hostdev_validate
                0x0000625c       0xa8 C:/Freescale_BM_USB_Stack_v5.0/Src/output/twrk70f120m.gcc_arm/debug/usbh/bm/usbh.a(usb_host_common.o)
                0x0000625c                usb_hostdev_validate
 .text.usb_host_driver_info_match
                0x00006304      0x1a4 C:/Freescale_BM_USB_Stack_v5.0/Src/output/twrk70f120m.gcc_arm/debug/usbh/bm/usbh.a(usb_host_common.o)
                0x00006304                usb_host_driver_info_match
 .text.usb_host_driver_info_nonzero
                0x000064a8       0x7c C:/Freescale_BM_USB_Stack_v5.0/Src/output/twrk70f120m.gcc_arm/debug/usbh/bm/usbh.a(usb_host_common.o)
                0x000064a8                usb_host_driver_info_nonzero
 .text.usb_host_get_class_map
                0x00006524       0x74 C:/Freescale_BM_USB_Stack_v5.0/Src/output/twrk70f120m.gcc_arm/debug/usbh/bm/usbh.a(usb_host_common.o)
                0x00006524                usb_host_get_class_map
 .text.usb_hostdev_mask_class_etc
                0x00006598       0x7c C:/Freescale_BM_USB_Stack_v5.0/Src/output/twrk70f120m.gcc_arm/debug/usbh/bm/usbh.a(usb_host_common.o)
 .text.usb_host_dev_mng_get_address
                0x00006614       0x24 C:/Freescale_BM_USB_Stack_v5.0/Src/output/twrk70f120m.gcc_arm/debug/usbh/bm/usbh.a(usb_host_dev_mng.o)
                0x00006614                usb_host_dev_mng_get_address
 .text.usb_host_dev_mng_get_hubno
                0x00006638       0x24 C:/Freescale_BM_USB_Stack_v5.0/Src/output/twrk70f120m.gcc_arm/debug/usbh/bm/usbh.a(usb_host_dev_mng.o)
                0x00006638                usb_host_dev_mng_get_hubno
 .text.usb_host_dev_mng_get_portno
                0x0000665c       0x24 C:/Freescale_BM_USB_Stack_v5.0/Src/output/twrk70f120m.gcc_arm/debug/usbh/bm/usbh.a(usb_host_dev_mng.o)
                0x0000665c                usb_host_dev_mng_get_portno
 .text.usb_host_dev_mng_get_speed
                0x00006680       0x24 C:/Freescale_BM_USB_Stack_v5.0/Src/output/twrk70f120m.gcc_arm/debug/usbh/bm/usbh.a(usb_host_dev_mng.o)
                0x00006680                usb_host_dev_mng_get_speed
 .text.usb_host_dev_mng_get_hub_speed
                0x000066a4       0x28 C:/Freescale_BM_USB_Stack_v5.0/Src/output/twrk70f120m.gcc_arm/debug/usbh/bm/usbh.a(usb_host_dev_mng.o)
                0x000066a4                usb_host_dev_mng_get_hub_speed
 .text.usb_host_dev_mng_get_attach_state
                0x000066cc       0x28 C:/Freescale_BM_USB_Stack_v5.0/Src/output/twrk70f120m.gcc_arm/debug/usbh/bm/usbh.a(usb_host_dev_mng.o)
                0x000066cc                usb_host_dev_mng_get_attach_state
 .text.usb_host_dev_mng_get_host
                0x000066f4       0x24 C:/Freescale_BM_USB_Stack_v5.0/Src/output/twrk70f120m.gcc_arm/debug/usbh/bm/usbh.a(usb_host_dev_mng.o)
                0x000066f4                usb_host_dev_mng_get_host
 .text.usb_host_dev_mng_get_control_pipe
                0x00006718       0x24 C:/Freescale_BM_USB_Stack_v5.0/Src/output/twrk70f120m.gcc_arm/debug/usbh/bm/usbh.a(usb_host_dev_mng.o)
                0x00006718                usb_host_dev_mng_get_control_pipe
 .text.usb_host_dev_mng_get_level
                0x0000673c       0x28 C:/Freescale_BM_USB_Stack_v5.0/Src/output/twrk70f120m.gcc_arm/debug/usbh/bm/usbh.a(usb_host_dev_mng.o)
                0x0000673c                usb_host_dev_mng_get_level
 .text.usb_host_dev_mng_get_hs_hub_no
                0x00006764       0x28 C:/Freescale_BM_USB_Stack_v5.0/Src/output/twrk70f120m.gcc_arm/debug/usbh/bm/usbh.a(usb_host_dev_mng.o)
                0x00006764                usb_host_dev_mng_get_hs_hub_no
 .text.usb_host_dev_mng_get_hs_port_no
                0x0000678c       0x28 C:/Freescale_BM_USB_Stack_v5.0/Src/output/twrk70f120m.gcc_arm/debug/usbh/bm/usbh.a(usb_host_dev_mng.o)
                0x0000678c                usb_host_dev_mng_get_hs_port_no
 .text.usb_host_dev_mng_get_interface_info
                0x000067b4       0x94 C:/Freescale_BM_USB_Stack_v5.0/Src/output/twrk70f120m.gcc_arm/debug/usbh/bm/usbh.a(usb_host_dev_mng.o)
                0x000067b4                usb_host_dev_mng_get_interface_info
 .text.usb_host_dev_mng_attach
                0x00006848      0x2c0 C:/Freescale_BM_USB_Stack_v5.0/Src/output/twrk70f120m.gcc_arm/debug/usbh/bm/usbh.a(usb_host_dev_mng.o)
                0x00006848                usb_host_dev_mng_attach
 .text.usb_host_dev_mng_pre_detach
                0x00006b08      0x150 C:/Freescale_BM_USB_Stack_v5.0/Src/output/twrk70f120m.gcc_arm/debug/usbh/bm/usbh.a(usb_host_dev_mng.o)
                0x00006b08                usb_host_dev_mng_pre_detach
 .text.usb_host_dev_mng_detach
                0x00006c58       0x94 C:/Freescale_BM_USB_Stack_v5.0/Src/output/twrk70f120m.gcc_arm/debug/usbh/bm/usbh.a(usb_host_dev_mng.o)
                0x00006c58                usb_host_dev_mng_detach
 .text.usb_host_dev_mng_check_configuration
                0x00006cec      0x154 C:/Freescale_BM_USB_Stack_v5.0/Src/output/twrk70f120m.gcc_arm/debug/usbh/bm/usbh.a(usb_host_dev_mng.o)
                0x00006cec                usb_host_dev_mng_check_configuration
 .text.usb_host_dev_mng_parse_configuration_descriptor
                0x00006e40      0x2cc C:/Freescale_BM_USB_Stack_v5.0/Src/output/twrk70f120m.gcc_arm/debug/usbh/bm/usbh.a(usb_host_dev_mng.o)
                0x00006e40                usb_host_dev_mng_parse_configuration_descriptor
 .text.usb_host_dev_notify
                0x0000710c      0x168 C:/Freescale_BM_USB_Stack_v5.0/Src/output/twrk70f120m.gcc_arm/debug/usbh/bm/usbh.a(usb_host_dev_mng.o)
                0x0000710c                usb_host_dev_notify
 .text.usb_host_dev_get_instance
                0x00007274       0x98 C:/Freescale_BM_USB_Stack_v5.0/Src/output/twrk70f120m.gcc_arm/debug/usbh/bm/usbh.a(usb_host_dev_mng.o)
 .text.usb_class_hid_init
                0x0000730c      0x188 C:/Freescale_BM_USB_Stack_v5.0/Src/output/twrk70f120m.gcc_arm/debug/usbh/bm/usbh.a(usb_host_hid.o)
                0x0000730c                usb_class_hid_init
 .text.usb_class_hid_deinit
                0x00007494       0x6c C:/Freescale_BM_USB_Stack_v5.0/Src/output/twrk70f120m.gcc_arm/debug/usbh/bm/usbh.a(usb_host_hid.o)
                0x00007494                usb_class_hid_deinit
 .text.usb_class_hid_pre_deinit
                0x00007500       0x68 C:/Freescale_BM_USB_Stack_v5.0/Src/output/twrk70f120m.gcc_arm/debug/usbh/bm/usbh.a(usb_host_hid.o)
                0x00007500                usb_class_hid_pre_deinit
 .text.usb_class_hid_cntrl_callback
                0x00007568       0x80 C:/Freescale_BM_USB_Stack_v5.0/Src/output/twrk70f120m.gcc_arm/debug/usbh/bm/usbh.a(usb_host_hid.o)
 .text.usb_class_hid_recv_callback
                0x000075e8       0x58 C:/Freescale_BM_USB_Stack_v5.0/Src/output/twrk70f120m.gcc_arm/debug/usbh/bm/usbh.a(usb_host_hid.o)
 .text.usb_class_hid_cntrl_common
                0x00007640      0x164 C:/Freescale_BM_USB_Stack_v5.0/Src/output/twrk70f120m.gcc_arm/debug/usbh/bm/usbh.a(usb_host_hid.o)
 .text.usb_class_hid_recv_data
                0x000077a4       0xec C:/Freescale_BM_USB_Stack_v5.0/Src/output/twrk70f120m.gcc_arm/debug/usbh/bm/usbh.a(usb_host_hid.o)
                0x000077a4                usb_class_hid_recv_data
 .text.usb_class_hid_get_descriptor
                0x00007890       0x3c C:/Freescale_BM_USB_Stack_v5.0/Src/output/twrk70f120m.gcc_arm/debug/usbh/bm/usbh.a(usb_host_hid.o)
                0x00007890                usb_class_hid_get_descriptor
 .text.usb_class_hid_set_idle
                0x000078cc       0x48 C:/Freescale_BM_USB_Stack_v5.0/Src/output/twrk70f120m.gcc_arm/debug/usbh/bm/usbh.a(usb_host_hid.o)
                0x000078cc                usb_class_hid_set_idle
 .text.usb_class_hid_set_protocol
                0x00007914       0x38 C:/Freescale_BM_USB_Stack_v5.0/Src/output/twrk70f120m.gcc_arm/debug/usbh/bm/usbh.a(usb_host_hid.o)
                0x00007914                usb_class_hid_set_protocol
 .text.usb_host_hub_rescan
                0x0000794c       0xd8 C:/Freescale_BM_USB_Stack_v5.0/Src/output/twrk70f120m.gcc_arm/debug/usbh/bm/usbh.a(usb_host_hub_sm.o)
 .text.usb_host_hub_get_bitmap
                0x00007a24       0x7c C:/Freescale_BM_USB_Stack_v5.0/Src/output/twrk70f120m.gcc_arm/debug/usbh/bm/usbh.a(usb_host_hub_sm.o)
 .text.usb_host_hub_get_instance
                0x00007aa0       0x88 C:/Freescale_BM_USB_Stack_v5.0/Src/output/twrk70f120m.gcc_arm/debug/usbh/bm/usbh.a(usb_host_hub_sm.o)
                0x00007aa0                usb_host_hub_get_instance
 .text.usb_host_hub_create_instance
                0x00007b28      0x170 C:/Freescale_BM_USB_Stack_v5.0/Src/output/twrk70f120m.gcc_arm/debug/usbh/bm/usbh.a(usb_host_hub_sm.o)
 .text.usb_host_hub_destroy_instance
                0x00007c98       0x90 C:/Freescale_BM_USB_Stack_v5.0/Src/output/twrk70f120m.gcc_arm/debug/usbh/bm/usbh.a(usb_host_hub_sm.o)
                0x00007c98                usb_host_hub_destroy_instance
 .text.usb_hub_task
                0x00007d28       0xe8 C:/Freescale_BM_USB_Stack_v5.0/Src/output/twrk70f120m.gcc_arm/debug/usbh/bm/usbh.a(usb_host_hub_sm.o)
 .text.usb_host_hub_device_event
                0x00007e10      0x314 C:/Freescale_BM_USB_Stack_v5.0/Src/output/twrk70f120m.gcc_arm/debug/usbh/bm/usbh.a(usb_host_hub_sm.o)
                0x00007e10                usb_host_hub_device_event
 .text.usb_host_hub_device_sm
                0x00008124      0x988 C:/Freescale_BM_USB_Stack_v5.0/Src/output/twrk70f120m.gcc_arm/debug/usbh/bm/usbh.a(usb_host_hub_sm.o)
                0x00008124                usb_host_hub_device_sm
 .text.usb_host_hub_int_callback
                0x00008aac      0x1b4 C:/Freescale_BM_USB_Stack_v5.0/Src/output/twrk70f120m.gcc_arm/debug/usbh/bm/usbh.a(usb_host_hub_sm.o)
 .text.usb_host_hub_Port_Reset
                0x00008c60       0x44 C:/Freescale_BM_USB_Stack_v5.0/Src/output/twrk70f120m.gcc_arm/debug/usbh/bm/usbh.a(usb_host_hub_sm.o)
                0x00008c60                usb_host_hub_Port_Reset
 .text.usb_hal_ehci_set_usb_mode
                0x00008ca4       0x24 C:/Freescale_BM_USB_Stack_v5.0/Src/output/twrk70f120m.gcc_arm/debug/usbh/bm/usbh.a(ehci_host.o)
 .text.usb_hal_ehci_get_interrupt_status
                0x00008cc8       0x20 C:/Freescale_BM_USB_Stack_v5.0/Src/output/twrk70f120m.gcc_arm/debug/usbh/bm/usbh.a(ehci_host.o)
 .text.usb_hal_ehci_enable_interrupts
                0x00008ce8       0x30 C:/Freescale_BM_USB_Stack_v5.0/Src/output/twrk70f120m.gcc_arm/debug/usbh/bm/usbh.a(ehci_host.o)
 .text.usb_hal_ehci_interrupts_set
                0x00008d18       0x24 C:/Freescale_BM_USB_Stack_v5.0/Src/output/twrk70f120m.gcc_arm/debug/usbh/bm/usbh.a(ehci_host.o)
 .text.usb_hal_ehci_disable_interrupts
                0x00008d3c       0x34 C:/Freescale_BM_USB_Stack_v5.0/Src/output/twrk70f120m.gcc_arm/debug/usbh/bm/usbh.a(ehci_host.o)
 .text.usb_hal_ehci_initiate_detach_event
                0x00008d70       0x30 C:/Freescale_BM_USB_Stack_v5.0/Src/output/twrk70f120m.gcc_arm/debug/usbh/bm/usbh.a(ehci_host.o)
 .text.usb_hal_ehci_reset_controller
                0x00008da0       0x24 C:/Freescale_BM_USB_Stack_v5.0/Src/output/twrk70f120m.gcc_arm/debug/usbh/bm/usbh.a(ehci_host.o)
 .text.usb_hal_echi_clear_usb_cmd_async_sched_enable
                0x00008dc4       0x30 C:/Freescale_BM_USB_Stack_v5.0/Src/output/twrk70f120m.gcc_arm/debug/usbh/bm/usbh.a(ehci_host.o)
 .text.usb_hal_ehci_set_usb_cmd_async_sched_enable
                0x00008df4       0x30 C:/Freescale_BM_USB_Stack_v5.0/Src/output/twrk70f120m.gcc_arm/debug/usbh/bm/usbh.a(ehci_host.o)
 .text.usb_hal_ehci_clear_usb_cmd_periodic_sched_enable
                0x00008e24       0x30 C:/Freescale_BM_USB_Stack_v5.0/Src/output/twrk70f120m.gcc_arm/debug/usbh/bm/usbh.a(ehci_host.o)
 .text.usb_hal_ehci_set_usb_cmd
                0x00008e54       0x24 C:/Freescale_BM_USB_Stack_v5.0/Src/output/twrk70f120m.gcc_arm/debug/usbh/bm/usbh.a(ehci_host.o)
 .text.usb_hal_ehci_get_usb_cmd
                0x00008e78       0x20 C:/Freescale_BM_USB_Stack_v5.0/Src/output/twrk70f120m.gcc_arm/debug/usbh/bm/usbh.a(ehci_host.o)
 .text.usb_hal_ehci_set_usb_config
                0x00008e98       0x14 C:/Freescale_BM_USB_Stack_v5.0/Src/output/twrk70f120m.gcc_arm/debug/usbh/bm/usbh.a(ehci_host.o)
 .text.usb_hal_ehci_get_frame_index
                0x00008eac       0x20 C:/Freescale_BM_USB_Stack_v5.0/Src/output/twrk70f120m.gcc_arm/debug/usbh/bm/usbh.a(ehci_host.o)
 .text.usb_hal_ehci_get_port_status
                0x00008ecc       0x20 C:/Freescale_BM_USB_Stack_v5.0/Src/output/twrk70f120m.gcc_arm/debug/usbh/bm/usbh.a(ehci_host.o)
 .text.usb_hal_ehci_set_port_status
                0x00008eec       0x24 C:/Freescale_BM_USB_Stack_v5.0/Src/output/twrk70f120m.gcc_arm/debug/usbh/bm/usbh.a(ehci_host.o)
 .text.usb_hal_ehci_get_usb_status
                0x00008f10       0x20 C:/Freescale_BM_USB_Stack_v5.0/Src/output/twrk70f120m.gcc_arm/debug/usbh/bm/usbh.a(ehci_host.o)
 .text.usb_hal_ehci_clear_usb_status
                0x00008f30       0x24 C:/Freescale_BM_USB_Stack_v5.0/Src/output/twrk70f120m.gcc_arm/debug/usbh/bm/usbh.a(ehci_host.o)
 .text.usb_hal_ehci_get_hcsparams
                0x00008f54       0x20 C:/Freescale_BM_USB_Stack_v5.0/Src/output/twrk70f120m.gcc_arm/debug/usbh/bm/usbh.a(ehci_host.o)
 .text.usb_hal_ehci_set_qh_to_curr_async_list
                0x00008f74       0x24 C:/Freescale_BM_USB_Stack_v5.0/Src/output/twrk70f120m.gcc_arm/debug/usbh/bm/usbh.a(ehci_host.o)
 .text.usb_hal_ehci_get_curr_async_list
                0x00008f98       0x20 C:/Freescale_BM_USB_Stack_v5.0/Src/output/twrk70f120m.gcc_arm/debug/usbh/bm/usbh.a(ehci_host.o)
 .text.usb_hal_ehci_set_periodic_list_base_addr
                0x00008fb8       0x24 C:/Freescale_BM_USB_Stack_v5.0/Src/output/twrk70f120m.gcc_arm/debug/usbh/bm/usbh.a(ehci_host.o)
 .text.usb_hal_ehci_add_frame_list_pointer_ITD
                0x00008fdc       0x1c C:/Freescale_BM_USB_Stack_v5.0/Src/output/twrk70f120m.gcc_arm/debug/usbh/bm/usbh.a(ehci_host.o)
 .text.usb_hal_ehci_add_frame_list_pointer_SITD
                0x00008ff8       0x20 C:/Freescale_BM_USB_Stack_v5.0/Src/output/twrk70f120m.gcc_arm/debug/usbh/bm/usbh.a(ehci_host.o)
 .text.usb_hal_ehci_get_periodic_list_addr
                0x00009018       0x1c C:/Freescale_BM_USB_Stack_v5.0/Src/output/twrk70f120m.gcc_arm/debug/usbh/bm/usbh.a(ehci_host.o)
 .text.usb_hal_ehci_set_periodic_list_addr
                0x00009034       0x20 C:/Freescale_BM_USB_Stack_v5.0/Src/output/twrk70f120m.gcc_arm/debug/usbh/bm/usbh.a(ehci_host.o)
 .text.usb_hal_ehci_set_transfer_data_struct
                0x00009054       0x1c C:/Freescale_BM_USB_Stack_v5.0/Src/output/twrk70f120m.gcc_arm/debug/usbh/bm/usbh.a(ehci_host.o)
 .text.usb_hal_ehci_set_itd_next_link_pointer
                0x00009070       0x1c C:/Freescale_BM_USB_Stack_v5.0/Src/output/twrk70f120m.gcc_arm/debug/usbh/bm/usbh.a(ehci_host.o)
 .text.usb_hal_ehci_get_itd_next_link_pointer
                0x0000908c       0x1c C:/Freescale_BM_USB_Stack_v5.0/Src/output/twrk70f120m.gcc_arm/debug/usbh/bm/usbh.a(ehci_host.o)
 .text.usb_hal_ehci_set_ITD_terminate_bit
                0x000090a8       0x1c C:/Freescale_BM_USB_Stack_v5.0/Src/output/twrk70f120m.gcc_arm/debug/usbh/bm/usbh.a(ehci_host.o)
 .text.usb_hal_ehci_store_endpoint_number_and_device_addr
                0x000090c4       0x1c C:/Freescale_BM_USB_Stack_v5.0/Src/output/twrk70f120m.gcc_arm/debug/usbh/bm/usbh.a(ehci_host.o)
 .text.usb_hal_ehci_store_max_packet_size_and_direction
                0x000090e0       0x1c C:/Freescale_BM_USB_Stack_v5.0/Src/output/twrk70f120m.gcc_arm/debug/usbh/bm/usbh.a(ehci_host.o)
 .text.usb_hal_ehci_set_transaction_number_per_micro_frame
                0x000090fc       0x1c C:/Freescale_BM_USB_Stack_v5.0/Src/output/twrk70f120m.gcc_arm/debug/usbh/bm/usbh.a(ehci_host.o)
 .text.usb_hal_ehci_set_buffer_page_pointer
                0x00009118       0x2c C:/Freescale_BM_USB_Stack_v5.0/Src/output/twrk70f120m.gcc_arm/debug/usbh/bm/usbh.a(ehci_host.o)
 .text.usb_hal_ehci_get_buffer_page_pointer
                0x00009144       0x28 C:/Freescale_BM_USB_Stack_v5.0/Src/output/twrk70f120m.gcc_arm/debug/usbh/bm/usbh.a(ehci_host.o)
 .text.usb_hal_ehci_set_transcation_status_and_control_bit
                0x0000916c       0x28 C:/Freescale_BM_USB_Stack_v5.0/Src/output/twrk70f120m.gcc_arm/debug/usbh/bm/usbh.a(ehci_host.o)
 .text.usb_hal_ehci_set_transcation_status_active_bit
                0x00009194       0x34 C:/Freescale_BM_USB_Stack_v5.0/Src/output/twrk70f120m.gcc_arm/debug/usbh/bm/usbh.a(ehci_host.o)
 .text.usb_hal_ehci_get_transcation_status_ctl_list
                0x000091c8       0x24 C:/Freescale_BM_USB_Stack_v5.0/Src/output/twrk70f120m.gcc_arm/debug/usbh/bm/usbh.a(ehci_host.o)
 .text.usb_hal_ehci_set_itd_length_scheduled
                0x000091ec       0x1c C:/Freescale_BM_USB_Stack_v5.0/Src/output/twrk70f120m.gcc_arm/debug/usbh/bm/usbh.a(ehci_host.o)
 .text.usb_hal_ehci_set_sitd_next_link_pointer
                0x00009208       0x1c C:/Freescale_BM_USB_Stack_v5.0/Src/output/twrk70f120m.gcc_arm/debug/usbh/bm/usbh.a(ehci_host.o)
 .text.usb_hal_ehci_get_sitd_next_link_pointer
                0x00009224       0x1c C:/Freescale_BM_USB_Stack_v5.0/Src/output/twrk70f120m.gcc_arm/debug/usbh/bm/usbh.a(ehci_host.o)
 .text.usb_hal_ehci_get_sitd_transfer_state
                0x00009240       0x1c C:/Freescale_BM_USB_Stack_v5.0/Src/output/twrk70f120m.gcc_arm/debug/usbh/bm/usbh.a(ehci_host.o)
 .text.usb_hal_ehci_set_sitd_next_link_terminate_bit
                0x0000925c       0x1c C:/Freescale_BM_USB_Stack_v5.0/Src/output/twrk70f120m.gcc_arm/debug/usbh/bm/usbh.a(ehci_host.o)
 .text.usb_hal_ehci_set_sitd_back_pointer_terminate_bit
                0x00009278       0x1c C:/Freescale_BM_USB_Stack_v5.0/Src/output/twrk70f120m.gcc_arm/debug/usbh/bm/usbh.a(ehci_host.o)
 .text.usb_hal_ehci_set_sitd_ep_capab_charac
                0x00009294       0x1c C:/Freescale_BM_USB_Stack_v5.0/Src/output/twrk70f120m.gcc_arm/debug/usbh/bm/usbh.a(ehci_host.o)
 .text.usb_hal_ehci_set_sitd_uframe_sched_ctl
                0x000092b0       0x1c C:/Freescale_BM_USB_Stack_v5.0/Src/output/twrk70f120m.gcc_arm/debug/usbh/bm/usbh.a(ehci_host.o)
 .text.usb_hal_ehci_set_sitd_transfer_state
                0x000092cc       0x1c C:/Freescale_BM_USB_Stack_v5.0/Src/output/twrk70f120m.gcc_arm/debug/usbh/bm/usbh.a(ehci_host.o)
 .text.usb_hal_ehci_set_sitd_length_scheduled
                0x000092e8       0x1c C:/Freescale_BM_USB_Stack_v5.0/Src/output/twrk70f120m.gcc_arm/debug/usbh/bm/usbh.a(ehci_host.o)
 .text.usb_hal_ehci_get_sitd_length_scheduled
                0x00009304       0x1c C:/Freescale_BM_USB_Stack_v5.0/Src/output/twrk70f120m.gcc_arm/debug/usbh/bm/usbh.a(ehci_host.o)
 .text.usb_hal_ehci_get_sitd_buffer_ptr_0
                0x00009320       0x1c C:/Freescale_BM_USB_Stack_v5.0/Src/output/twrk70f120m.gcc_arm/debug/usbh/bm/usbh.a(ehci_host.o)
 .text.usb_hal_ehci_set_sitd_buffer_ptr_0
                0x0000933c       0x1c C:/Freescale_BM_USB_Stack_v5.0/Src/output/twrk70f120m.gcc_arm/debug/usbh/bm/usbh.a(ehci_host.o)
 .text.usb_hal_ehci_set_sitd_buffer_ptr_1
                0x00009358       0x1c C:/Freescale_BM_USB_Stack_v5.0/Src/output/twrk70f120m.gcc_arm/debug/usbh/bm/usbh.a(ehci_host.o)
 .text.usb_hal_ehci_set_qh_next_alt_qtd_link_terminate
                0x00009374       0x1c C:/Freescale_BM_USB_Stack_v5.0/Src/output/twrk70f120m.gcc_arm/debug/usbh/bm/usbh.a(ehci_host.o)
 .text.usb_hal_ehci_set_qh_next_qtd_link_ptr
                0x00009390       0x1c C:/Freescale_BM_USB_Stack_v5.0/Src/output/twrk70f120m.gcc_arm/debug/usbh/bm/usbh.a(ehci_host.o)
 .text.usb_hal_ehci_set_qh_next_qtd_link_terminate
                0x000093ac       0x1c C:/Freescale_BM_USB_Stack_v5.0/Src/output/twrk70f120m.gcc_arm/debug/usbh/bm/usbh.a(ehci_host.o)
 .text.usb_hal_ehci_get_next_qtd_link_ptr
                0x000093c8       0x1c C:/Freescale_BM_USB_Stack_v5.0/Src/output/twrk70f120m.gcc_arm/debug/usbh/bm/usbh.a(ehci_host.o)
 .text.usb_hal_ehci_clear_qh_status
                0x000093e4       0x1c C:/Freescale_BM_USB_Stack_v5.0/Src/output/twrk70f120m.gcc_arm/debug/usbh/bm/usbh.a(ehci_host.o)
 .text.usb_hal_ehci_get_qh_status
                0x00009400       0x1c C:/Freescale_BM_USB_Stack_v5.0/Src/output/twrk70f120m.gcc_arm/debug/usbh/bm/usbh.a(ehci_host.o)
 .text.usb_hal_ehci_set_qh_status
                0x0000941c       0x1c C:/Freescale_BM_USB_Stack_v5.0/Src/output/twrk70f120m.gcc_arm/debug/usbh/bm/usbh.a(ehci_host.o)
 .text.usb_hal_ehci_get_qh_horiz_link_ptr
                0x00009438       0x1c C:/Freescale_BM_USB_Stack_v5.0/Src/output/twrk70f120m.gcc_arm/debug/usbh/bm/usbh.a(ehci_host.o)
 .text.usb_hal_ehci_set_qh_horiz_link_ptr
                0x00009454       0x1c C:/Freescale_BM_USB_Stack_v5.0/Src/output/twrk70f120m.gcc_arm/debug/usbh/bm/usbh.a(ehci_host.o)
 .text.usb_hal_ehci_init_qh
                0x00009470       0x54 C:/Freescale_BM_USB_Stack_v5.0/Src/output/twrk70f120m.gcc_arm/debug/usbh/bm/usbh.a(ehci_host.o)
 .text.usb_hal_ehci_set_ep_capab_charac1
                0x000094c4       0x1c C:/Freescale_BM_USB_Stack_v5.0/Src/output/twrk70f120m.gcc_arm/debug/usbh/bm/usbh.a(ehci_host.o)
 .text.usb_hal_ehci_get_ep_capab_charac1
                0x000094e0       0x1c C:/Freescale_BM_USB_Stack_v5.0/Src/output/twrk70f120m.gcc_arm/debug/usbh/bm/usbh.a(ehci_host.o)
 .text.usb_hal_ehci_set_ep_capab_charac2
                0x000094fc       0x1c C:/Freescale_BM_USB_Stack_v5.0/Src/output/twrk70f120m.gcc_arm/debug/usbh/bm/usbh.a(ehci_host.o)
 .text.usb_hal_ehci_set_qh_horiz_link_ptr_head_pointer_terminate
                0x00009518       0x1c C:/Freescale_BM_USB_Stack_v5.0/Src/output/twrk70f120m.gcc_arm/debug/usbh/bm/usbh.a(ehci_host.o)
 .text.usb_hal_ehci_set_qtd_buffer_page_pointer
                0x00009534       0x4c C:/Freescale_BM_USB_Stack_v5.0/Src/output/twrk70f120m.gcc_arm/debug/usbh/bm/usbh.a(ehci_host.o)
 .text.usb_hal_ehci_set_qtd_token
                0x00009580       0x1c C:/Freescale_BM_USB_Stack_v5.0/Src/output/twrk70f120m.gcc_arm/debug/usbh/bm/usbh.a(ehci_host.o)
 .text.usb_hal_ehci_clear_qtd_token_bits
                0x0000959c       0x28 C:/Freescale_BM_USB_Stack_v5.0/Src/output/twrk70f120m.gcc_arm/debug/usbh/bm/usbh.a(ehci_host.o)
 .text.usb_hal_ehci_get_qtd_token
                0x000095c4       0x1c C:/Freescale_BM_USB_Stack_v5.0/Src/output/twrk70f120m.gcc_arm/debug/usbh/bm/usbh.a(ehci_host.o)
 .text.usb_hal_ehci_set_qtd_terminate_bit
                0x000095e0       0x1c C:/Freescale_BM_USB_Stack_v5.0/Src/output/twrk70f120m.gcc_arm/debug/usbh/bm/usbh.a(ehci_host.o)
 .text.usb_hal_ehci_get_next_qtd_ptr
                0x000095fc       0x1c C:/Freescale_BM_USB_Stack_v5.0/Src/output/twrk70f120m.gcc_arm/debug/usbh/bm/usbh.a(ehci_host.o)
 .text.usb_hal_ehci_set_alt_next_qtd_terminate_bit
                0x00009618       0x1c C:/Freescale_BM_USB_Stack_v5.0/Src/output/twrk70f120m.gcc_arm/debug/usbh/bm/usbh.a(ehci_host.o)
 .text.usb_hal_ehci_link_qtd
                0x00009634       0x1c C:/Freescale_BM_USB_Stack_v5.0/Src/output/twrk70f120m.gcc_arm/debug/usbh/bm/usbh.a(ehci_host.o)
 .text._usb_ehci_send_data
                0x00009650       0x24 C:/Freescale_BM_USB_Stack_v5.0/Src/output/twrk70f120m.gcc_arm/debug/usbh/bm/usbh.a(ehci_host.o)
                0x00009650                _usb_ehci_send_data
 .text._usb_ehci_send_setup
                0x00009674       0x24 C:/Freescale_BM_USB_Stack_v5.0/Src/output/twrk70f120m.gcc_arm/debug/usbh/bm/usbh.a(ehci_host.o)
                0x00009674                _usb_ehci_send_setup
 .text._usb_ehci_recv_data
                0x00009698       0x24 C:/Freescale_BM_USB_Stack_v5.0/Src/output/twrk70f120m.gcc_arm/debug/usbh/bm/usbh.a(ehci_host.o)
                0x00009698                _usb_ehci_recv_data
 .text._usb_ehci_queue_pkts
                0x000096bc       0x7c C:/Freescale_BM_USB_Stack_v5.0/Src/output/twrk70f120m.gcc_arm/debug/usbh/bm/usbh.a(ehci_host.o)
                0x000096bc                _usb_ehci_queue_pkts
 .text._usb_ehci_link_qtd_to_qh
                0x00009738       0xd0 C:/Freescale_BM_USB_Stack_v5.0/Src/output/twrk70f120m.gcc_arm/debug/usbh/bm/usbh.a(ehci_host.o)
                0x00009738                _usb_ehci_link_qtd_to_qh
 .text._usb_ehci_link_qh_to_async_active_list
                0x00009808       0xcc C:/Freescale_BM_USB_Stack_v5.0/Src/output/twrk70f120m.gcc_arm/debug/usbh/bm/usbh.a(ehci_host.o)
                0x00009808                _usb_ehci_link_qh_to_async_active_list
 .text._usb_ehci_unlink_qh_from_async_active_list
                0x000098d4       0xe0 C:/Freescale_BM_USB_Stack_v5.0/Src/output/twrk70f120m.gcc_arm/debug/usbh/bm/usbh.a(ehci_host.o)
                0x000098d4                _usb_ehci_unlink_qh_from_async_active_list
 .text._usb_ehci_init_qh
                0x000099b4      0x1ec C:/Freescale_BM_USB_Stack_v5.0/Src/output/twrk70f120m.gcc_arm/debug/usbh/bm/usbh.a(ehci_host.o)
                0x000099b4                _usb_ehci_init_qh
 .text._usb_ehci_init_qtd
                0x00009ba0       0x74 C:/Freescale_BM_USB_Stack_v5.0/Src/output/twrk70f120m.gcc_arm/debug/usbh/bm/usbh.a(ehci_host.o)
                0x00009ba0                _usb_ehci_init_qtd
 .text._usb_ehci_init_qtd_link
                0x00009c14      0x2d0 C:/Freescale_BM_USB_Stack_v5.0/Src/output/twrk70f120m.gcc_arm/debug/usbh/bm/usbh.a(ehci_host.o)
                0x00009c14                _usb_ehci_init_qtd_link
 .text._usb_ehci_add_xfer_to_asynch_schedule_list
                0x00009ee4      0x13c C:/Freescale_BM_USB_Stack_v5.0/Src/output/twrk70f120m.gcc_arm/debug/usbh/bm/usbh.a(ehci_host.o)
                0x00009ee4                _usb_ehci_add_xfer_to_asynch_schedule_list
 .text._usb_ehci_add_interrupt_xfer_to_periodic_list
                0x0000a020       0xec C:/Freescale_BM_USB_Stack_v5.0/Src/output/twrk70f120m.gcc_arm/debug/usbh/bm/usbh.a(ehci_host.o)
                0x0000a020                _usb_ehci_add_interrupt_xfer_to_periodic_list
 .text._usb_ehci_process_port_change
                0x0000a10c      0x290 C:/Freescale_BM_USB_Stack_v5.0/Src/output/twrk70f120m.gcc_arm/debug/usbh/bm/usbh.a(ehci_host.o)
                0x0000a10c                _usb_ehci_process_port_change
 .text._usb_ehci_reset_and_enable_port
                0x0000a39c       0xb0 C:/Freescale_BM_USB_Stack_v5.0/Src/output/twrk70f120m.gcc_arm/debug/usbh/bm/usbh.a(ehci_host.o)
                0x0000a39c                _usb_ehci_reset_and_enable_port
 .text._usb_host_process_reset_recovery_done
                0x0000a44c       0x5c C:/Freescale_BM_USB_Stack_v5.0/Src/output/twrk70f120m.gcc_arm/debug/usbh/bm/usbh.a(ehci_host.o)
                0x0000a44c                _usb_host_process_reset_recovery_done
 .text._usb_ehci_isr
                0x0000a4a8      0x104 C:/Freescale_BM_USB_Stack_v5.0/Src/output/twrk70f120m.gcc_arm/debug/usbh/bm/usbh.a(ehci_host.o)
                0x0000a4a8                _usb_ehci_isr
 .text._usb_ehci_host_task
                0x0000a5ac      0x1f0 C:/Freescale_BM_USB_Stack_v5.0/Src/output/twrk70f120m.gcc_arm/debug/usbh/bm/usbh.a(ehci_host.o)
 .text._usb_ehci_host_task_create
                0x0000a79c       0x60 C:/Freescale_BM_USB_Stack_v5.0/Src/output/twrk70f120m.gcc_arm/debug/usbh/bm/usbh.a(ehci_host.o)
 .text._usb_ehci_preinit
                0x0000a7fc       0xb0 C:/Freescale_BM_USB_Stack_v5.0/Src/output/twrk70f120m.gcc_arm/debug/usbh/bm/usbh.a(ehci_host.o)
                0x0000a7fc                _usb_ehci_preinit
 .text._usb_ehci_init
                0x0000a8ac      0x634 C:/Freescale_BM_USB_Stack_v5.0/Src/output/twrk70f120m.gcc_arm/debug/usbh/bm/usbh.a(ehci_host.o)
                0x0000a8ac                _usb_ehci_init
 .text._usb_ehci_get_qtd
                0x0000aee0       0xd0 C:/Freescale_BM_USB_Stack_v5.0/Src/output/twrk70f120m.gcc_arm/debug/usbh/bm/usbh.a(ehci_host.o)
                0x0000aee0                _usb_ehci_get_qtd
 .text._usb_ehci_free_qtd
                0x0000afb0       0x74 C:/Freescale_BM_USB_Stack_v5.0/Src/output/twrk70f120m.gcc_arm/debug/usbh/bm/usbh.a(ehci_host.o)
                0x0000afb0                _usb_ehci_free_qtd
 .text._usb_ehci_get_qh
                0x0000b024       0xb4 C:/Freescale_BM_USB_Stack_v5.0/Src/output/twrk70f120m.gcc_arm/debug/usbh/bm/usbh.a(ehci_host.o)
                0x0000b024                _usb_ehci_get_qh
 .text._usb_ehci_free_qh
                0x0000b0d8       0x60 C:/Freescale_BM_USB_Stack_v5.0/Src/output/twrk70f120m.gcc_arm/debug/usbh/bm/usbh.a(ehci_host.o)
                0x0000b0d8                _usb_ehci_free_qh
 .text._usb_ehci_free_resources
                0x0000b138      0x13c C:/Freescale_BM_USB_Stack_v5.0/Src/output/twrk70f120m.gcc_arm/debug/usbh/bm/usbh.a(ehci_host.o)
                0x0000b138                _usb_ehci_free_resources
 .text._usb_ehci_process_tr_complete
                0x0000b274       0x58 C:/Freescale_BM_USB_Stack_v5.0/Src/output/twrk70f120m.gcc_arm/debug/usbh/bm/usbh.a(ehci_host.o)
                0x0000b274                _usb_ehci_process_tr_complete
 .text._usb_ehci_process_qh_list_tr_complete
                0x0000b2cc      0x408 C:/Freescale_BM_USB_Stack_v5.0/Src/output/twrk70f120m.gcc_arm/debug/usbh/bm/usbh.a(ehci_host.o)
                0x0000b2cc                _usb_ehci_process_qh_list_tr_complete
 .text._usb_ehci_process_qh_interrupt_tr_complete
                0x0000b6d4      0x2b0 C:/Freescale_BM_USB_Stack_v5.0/Src/output/twrk70f120m.gcc_arm/debug/usbh/bm/usbh.a(ehci_host.o)
                0x0000b6d4                _usb_ehci_process_qh_interrupt_tr_complete
 .text._usb_host_delay
                0x0000b984       0x6c C:/Freescale_BM_USB_Stack_v5.0/Src/output/twrk70f120m.gcc_arm/debug/usbh/bm/usbh.a(ehci_host.o)
                0x0000b984                _usb_host_delay
 .text._get_roundup_pow2
                0x0000b9f0       0x4c C:/Freescale_BM_USB_Stack_v5.0/Src/output/twrk70f120m.gcc_arm/debug/usbh/bm/usbh.a(ehci_host.o)
                0x0000b9f0                _get_roundup_pow2
 .text._usb_ehci_open_pipe
                0x0000ba3c      0x1d8 C:/Freescale_BM_USB_Stack_v5.0/Src/output/twrk70f120m.gcc_arm/debug/usbh/bm/usbh.a(ehci_host.o)
                0x0000ba3c                _usb_ehci_open_pipe
 .text._usb_ehci_close_pipe
                0x0000bc14      0x15c C:/Freescale_BM_USB_Stack_v5.0/Src/output/twrk70f120m.gcc_arm/debug/usbh/bm/usbh.a(ehci_host.o)
                0x0000bc14                _usb_ehci_close_pipe
 .text._usb_ehci_update_dev_address
                0x0000bd70       0xe4 C:/Freescale_BM_USB_Stack_v5.0/Src/output/twrk70f120m.gcc_arm/debug/usbh/bm/usbh.a(ehci_host.o)
                0x0000bd70                _usb_ehci_update_dev_address
 .text._usb_ehci_process_timer
                0x0000be54       0x14 C:/Freescale_BM_USB_Stack_v5.0/Src/output/twrk70f120m.gcc_arm/debug/usbh/bm/usbh.a(ehci_host.o)
                0x0000be54                _usb_ehci_process_timer
 .text._usb_ehci_cancel_transfer
                0x0000be68      0x408 C:/Freescale_BM_USB_Stack_v5.0/Src/output/twrk70f120m.gcc_arm/debug/usbh/bm/usbh.a(ehci_host.o)
                0x0000be68                _usb_ehci_cancel_transfer
 .text._usb_ehci_calculate_uframe_tr_time
                0x0000c270       0xc8 C:/Freescale_BM_USB_Stack_v5.0/Src/output/twrk70f120m.gcc_arm/debug/usbh/bm/usbh.a(ehci_host.o)
                0x0000c270                _usb_ehci_calculate_uframe_tr_time
 .text._usb_ehci_get_frame_number
                0x0000c338       0x30 C:/Freescale_BM_USB_Stack_v5.0/Src/output/twrk70f120m.gcc_arm/debug/usbh/bm/usbh.a(ehci_host.o)
                0x0000c338                _usb_ehci_get_frame_number
 .text._usb_ehci_get_micro_frame_number
                0x0000c368       0x28 C:/Freescale_BM_USB_Stack_v5.0/Src/output/twrk70f120m.gcc_arm/debug/usbh/bm/usbh.a(ehci_host.o)
                0x0000c368                _usb_ehci_get_micro_frame_number
 .text._usb_ehci_init_periodic_list
                0x0000c390      0x1bc C:/Freescale_BM_USB_Stack_v5.0/Src/output/twrk70f120m.gcc_arm/debug/usbh/bm/usbh.a(ehci_host.o)
                0x0000c390                _usb_ehci_init_periodic_list
 .text._usb_ehci_allocate_bandwidth
                0x0000c54c       0x94 C:/Freescale_BM_USB_Stack_v5.0/Src/output/twrk70f120m.gcc_arm/debug/usbh/bm/usbh.a(ehci_host.o)
                0x0000c54c                _usb_ehci_allocate_bandwidth
 .text._usb_ehci_commit_split_bandwidth
                0x0000c5e0      0x104 C:/Freescale_BM_USB_Stack_v5.0/Src/output/twrk70f120m.gcc_arm/debug/usbh/bm/usbh.a(ehci_host.o)
 .text._usb_ehci_free_split_bandwidth
                0x0000c6e4       0xbc C:/Freescale_BM_USB_Stack_v5.0/Src/output/twrk70f120m.gcc_arm/debug/usbh/bm/usbh.a(ehci_host.o)
 .text._usb_ehci_commit_high_speed_bandwidth
                0x0000c7a0      0x260 C:/Freescale_BM_USB_Stack_v5.0/Src/output/twrk70f120m.gcc_arm/debug/usbh/bm/usbh.a(ehci_host.o)
 .text._usb_ehci_free_high_speed_bandwidth
                0x0000ca00       0x90 C:/Freescale_BM_USB_Stack_v5.0/Src/output/twrk70f120m.gcc_arm/debug/usbh/bm/usbh.a(ehci_host.o)
 .text._usb_ehci_commit_bandwidth_slots
                0x0000ca90      0x660 C:/Freescale_BM_USB_Stack_v5.0/Src/output/twrk70f120m.gcc_arm/debug/usbh/bm/usbh.a(ehci_host.o)
 .text._usb_ehci_get_link_obj_interval
                0x0000d0f0       0x78 C:/Freescale_BM_USB_Stack_v5.0/Src/output/twrk70f120m.gcc_arm/debug/usbh/bm/usbh.a(ehci_host.o)
 .text.link_interrupt_qh_to_periodiclist
                0x0000d168      0x1a4 C:/Freescale_BM_USB_Stack_v5.0/Src/output/twrk70f120m.gcc_arm/debug/usbh/bm/usbh.a(ehci_host.o)
 .text.unlink_interrupt_qh_from_periodiclist
                0x0000d30c      0x190 C:/Freescale_BM_USB_Stack_v5.0/Src/output/twrk70f120m.gcc_arm/debug/usbh/bm/usbh.a(ehci_host.o)
 .text.allocate_ss_cs_bandwidth
                0x0000d49c       0x60 C:/Freescale_BM_USB_Stack_v5.0/Src/output/twrk70f120m.gcc_arm/debug/usbh/bm/usbh.a(ehci_host.o)
 .text.split_combinations
                0x0000d4fc       0xd8 C:/Freescale_BM_USB_Stack_v5.0/Src/output/twrk70f120m.gcc_arm/debug/usbh/bm/usbh.a(ehci_host.o)
 .text._usb_ehci_close_interrupt_pipe
                0x0000d5d4       0x3c C:/Freescale_BM_USB_Stack_v5.0/Src/output/twrk70f120m.gcc_arm/debug/usbh/bm/usbh.a(ehci_host.o)
                0x0000d5d4                _usb_ehci_close_interrupt_pipe
 .text._usb_ehci_link_structure_in_periodic_list
                0x0000d610      0x2ac C:/Freescale_BM_USB_Stack_v5.0/Src/output/twrk70f120m.gcc_arm/debug/usbh/bm/usbh.a(ehci_host.o)
                0x0000d610                _usb_ehci_link_structure_in_periodic_list
 .text._usb_ehci_add_ITD
                0x0000d8bc      0x4cc C:/Freescale_BM_USB_Stack_v5.0/Src/output/twrk70f120m.gcc_arm/debug/usbh/bm/usbh.a(ehci_host.o)
                0x0000d8bc                _usb_ehci_add_ITD
 .text._usb_ehci_add_SITD
                0x0000dd88      0x4a0 C:/Freescale_BM_USB_Stack_v5.0/Src/output/twrk70f120m.gcc_arm/debug/usbh/bm/usbh.a(ehci_host.o)
                0x0000dd88                _usb_ehci_add_SITD
 .text._usb_ehci_add_isochronous_xfer_to_periodic_schedule_list
                0x0000e228       0xbc C:/Freescale_BM_USB_Stack_v5.0/Src/output/twrk70f120m.gcc_arm/debug/usbh/bm/usbh.a(ehci_host.o)
                0x0000e228                _usb_ehci_add_isochronous_xfer_to_periodic_schedule_list
 .text._usb_ehci_process_itd_tr_complete
                0x0000e2e4      0x3d4 C:/Freescale_BM_USB_Stack_v5.0/Src/output/twrk70f120m.gcc_arm/debug/usbh/bm/usbh.a(ehci_host.o)
                0x0000e2e4                _usb_ehci_process_itd_tr_complete
 .text._usb_ehci_process_sitd_tr_complete
                0x0000e6b8      0x320 C:/Freescale_BM_USB_Stack_v5.0/Src/output/twrk70f120m.gcc_arm/debug/usbh/bm/usbh.a(ehci_host.o)
                0x0000e6b8                _usb_ehci_process_sitd_tr_complete
 .text._usb_ehci_free_ITD
                0x0000e9d8       0x60 C:/Freescale_BM_USB_Stack_v5.0/Src/output/twrk70f120m.gcc_arm/debug/usbh/bm/usbh.a(ehci_host.o)
                0x0000e9d8                _usb_ehci_free_ITD
 .text._usb_ehci_free_SITD
                0x0000ea38       0x6c C:/Freescale_BM_USB_Stack_v5.0/Src/output/twrk70f120m.gcc_arm/debug/usbh/bm/usbh.a(ehci_host.o)
                0x0000ea38                _usb_ehci_free_SITD
 .text._usb_ehci_close_isochronous_pipe
                0x0000eaa4      0x58c C:/Freescale_BM_USB_Stack_v5.0/Src/output/twrk70f120m.gcc_arm/debug/usbh/bm/usbh.a(ehci_host.o)
                0x0000eaa4                _usb_ehci_close_isochronous_pipe
 .text._usb_ehci_shutdown
                0x0000f030      0x120 C:/Freescale_BM_USB_Stack_v5.0/Src/output/twrk70f120m.gcc_arm/debug/usbh/bm/usbh.a(ehci_host.o)
                0x0000f030                _usb_ehci_shutdown
 .text._usb_ehci_bus_control
                0x0000f150       0x3c C:/Freescale_BM_USB_Stack_v5.0/Src/output/twrk70f120m.gcc_arm/debug/usbh/bm/usbh.a(ehci_host.o)
                0x0000f150                _usb_ehci_bus_control
 .text._usb_ehci_bus_suspend
                0x0000f18c       0xb0 C:/Freescale_BM_USB_Stack_v5.0/Src/output/twrk70f120m.gcc_arm/debug/usbh/bm/usbh.a(ehci_host.o)
                0x0000f18c                _usb_ehci_bus_suspend
 .text.usb_hal_khci_set_buffer_descriptor_table_addr
                0x0000f23c       0x4c C:/Freescale_BM_USB_Stack_v5.0/Src/output/twrk70f120m.gcc_arm/debug/usbh/bm/usbh.a(khci.o)
 .text.usb_hal_khci_enable_interrupts
                0x0000f288       0x34 C:/Freescale_BM_USB_Stack_v5.0/Src/output/twrk70f120m.gcc_arm/debug/usbh/bm/usbh.a(khci.o)
 .text.usb_hal_khci_disable_interrupts
                0x0000f2bc       0x3c C:/Freescale_BM_USB_Stack_v5.0/Src/output/twrk70f120m.gcc_arm/debug/usbh/bm/usbh.a(khci.o)
 .text.usb_hal_khci_get_interrupt_status
                0x0000f2f8       0x20 C:/Freescale_BM_USB_Stack_v5.0/Src/output/twrk70f120m.gcc_arm/debug/usbh/bm/usbh.a(khci.o)
 .text.usb_hal_khci_get_interrupt_enable_status
                0x0000f318       0x20 C:/Freescale_BM_USB_Stack_v5.0/Src/output/twrk70f120m.gcc_arm/debug/usbh/bm/usbh.a(khci.o)
 .text.usb_hal_khci_clr_interrupt
                0x0000f338       0x24 C:/Freescale_BM_USB_Stack_v5.0/Src/output/twrk70f120m.gcc_arm/debug/usbh/bm/usbh.a(khci.o)
 .text.usb_hal_khci_clr_all_interrupts
                0x0000f35c       0x20 C:/Freescale_BM_USB_Stack_v5.0/Src/output/twrk70f120m.gcc_arm/debug/usbh/bm/usbh.a(khci.o)
 .text.usb_hal_khci_is_interrupt_issued
                0x0000f37c       0x3c C:/Freescale_BM_USB_Stack_v5.0/Src/output/twrk70f120m.gcc_arm/debug/usbh/bm/usbh.a(khci.o)
 .text.usb_hal_khci_get_error_interrupt_status
                0x0000f3b8       0x20 C:/Freescale_BM_USB_Stack_v5.0/Src/output/twrk70f120m.gcc_arm/debug/usbh/bm/usbh.a(khci.o)
 .text.usb_hal_khci_clr_all_error_interrupts
                0x0000f3d8       0x20 C:/Freescale_BM_USB_Stack_v5.0/Src/output/twrk70f120m.gcc_arm/debug/usbh/bm/usbh.a(khci.o)
 .text.usb_hal_khci_is_error_happend
                0x0000f3f8       0x2c C:/Freescale_BM_USB_Stack_v5.0/Src/output/twrk70f120m.gcc_arm/debug/usbh/bm/usbh.a(khci.o)
 .text.usb_hal_khci_is_token_busy
                0x0000f424       0x28 C:/Freescale_BM_USB_Stack_v5.0/Src/output/twrk70f120m.gcc_arm/debug/usbh/bm/usbh.a(khci.o)
 .text.usb_hal_khci_set_oddrst
                0x0000f44c       0x30 C:/Freescale_BM_USB_Stack_v5.0/Src/output/twrk70f120m.gcc_arm/debug/usbh/bm/usbh.a(khci.o)
 .text.usb_hal_khci_start_bus_reset
                0x0000f47c       0x30 C:/Freescale_BM_USB_Stack_v5.0/Src/output/twrk70f120m.gcc_arm/debug/usbh/bm/usbh.a(khci.o)
 .text.usb_hal_khci_stop_bus_reset
                0x0000f4ac       0x30 C:/Freescale_BM_USB_Stack_v5.0/Src/output/twrk70f120m.gcc_arm/debug/usbh/bm/usbh.a(khci.o)
 .text.usb_hal_khci_set_host_mode
                0x0000f4dc       0x20 C:/Freescale_BM_USB_Stack_v5.0/Src/output/twrk70f120m.gcc_arm/debug/usbh/bm/usbh.a(khci.o)
 .text.usb_hal_khci_enable_sof
                0x0000f4fc       0x30 C:/Freescale_BM_USB_Stack_v5.0/Src/output/twrk70f120m.gcc_arm/debug/usbh/bm/usbh.a(khci.o)
 .text.usb_hal_khci_clear_control_register
                0x0000f52c       0x2c C:/Freescale_BM_USB_Stack_v5.0/Src/output/twrk70f120m.gcc_arm/debug/usbh/bm/usbh.a(khci.o)
 .text.usb_hal_khci_get_line_status
                0x0000f558       0x30 C:/Freescale_BM_USB_Stack_v5.0/Src/output/twrk70f120m.gcc_arm/debug/usbh/bm/usbh.a(khci.o)
 .text.usb_hal_khci_get_frame_number
                0x0000f588       0x3c C:/Freescale_BM_USB_Stack_v5.0/Src/output/twrk70f120m.gcc_arm/debug/usbh/bm/usbh.a(khci.o)
 .text.usb_hal_khci_set_device_addr
                0x0000f5c4       0x40 C:/Freescale_BM_USB_Stack_v5.0/Src/output/twrk70f120m.gcc_arm/debug/usbh/bm/usbh.a(khci.o)
 .text.usb_hal_khci_endpoint0_init
                0x0000f604       0x44 C:/Freescale_BM_USB_Stack_v5.0/Src/output/twrk70f120m.gcc_arm/debug/usbh/bm/usbh.a(khci.o)
 .text.usb_hal_khci_endpoint_on_hub
                0x0000f648       0x44 C:/Freescale_BM_USB_Stack_v5.0/Src/output/twrk70f120m.gcc_arm/debug/usbh/bm/usbh.a(khci.o)
 .text.usb_hal_khci_enable_low_speed_support
                0x0000f68c       0x30 C:/Freescale_BM_USB_Stack_v5.0/Src/output/twrk70f120m.gcc_arm/debug/usbh/bm/usbh.a(khci.o)
 .text.usb_hal_khci_disable_low_speed_support
                0x0000f6bc       0x30 C:/Freescale_BM_USB_Stack_v5.0/Src/output/twrk70f120m.gcc_arm/debug/usbh/bm/usbh.a(khci.o)
 .text.usb_hal_khci_enable_pull_down
                0x0000f6ec       0x30 C:/Freescale_BM_USB_Stack_v5.0/Src/output/twrk70f120m.gcc_arm/debug/usbh/bm/usbh.a(khci.o)
 .text.usb_hal_khci_set_suspend
                0x0000f71c       0x30 C:/Freescale_BM_USB_Stack_v5.0/Src/output/twrk70f120m.gcc_arm/debug/usbh/bm/usbh.a(khci.o)
 .text.usb_hal_khci_clr_suspend
                0x0000f74c       0x30 C:/Freescale_BM_USB_Stack_v5.0/Src/output/twrk70f120m.gcc_arm/debug/usbh/bm/usbh.a(khci.o)
 .text.usb_hal_khci_set_sof_theshold
                0x0000f77c       0x24 C:/Freescale_BM_USB_Stack_v5.0/Src/output/twrk70f120m.gcc_arm/debug/usbh/bm/usbh.a(khci.o)
 .text.usb_hal_khci_set_target_token
                0x0000f7a0       0x34 C:/Freescale_BM_USB_Stack_v5.0/Src/output/twrk70f120m.gcc_arm/debug/usbh/bm/usbh.a(khci.o)
 .text._usb_khci_get_total_frame_count
                0x0000f7d4       0x70 C:/Freescale_BM_USB_Stack_v5.0/Src/output/twrk70f120m.gcc_arm/debug/usbh/bm/usbh.a(khci.o)
 .text._usb_khci_isr
                0x0000f844       0xc8 C:/Freescale_BM_USB_Stack_v5.0/Src/output/twrk70f120m.gcc_arm/debug/usbh/bm/usbh.a(khci.o)
                0x0000f844                _usb_khci_isr
 .text._usb_khci_init_tr_que
                0x0000f90c       0x70 C:/Freescale_BM_USB_Stack_v5.0/Src/output/twrk70f120m.gcc_arm/debug/usbh/bm/usbh.a(khci.o)
 .text._usb_khci_add_tr
                0x0000f97c       0xa4 C:/Freescale_BM_USB_Stack_v5.0/Src/output/twrk70f120m.gcc_arm/debug/usbh/bm/usbh.a(khci.o)
 .text._usb_khci_rm_tr
                0x0000fa20       0x8c C:/Freescale_BM_USB_Stack_v5.0/Src/output/twrk70f120m.gcc_arm/debug/usbh/bm/usbh.a(khci.o)
 .text._usb_khci_get_hot_tr
                0x0000faac       0xe0 C:/Freescale_BM_USB_Stack_v5.0/Src/output/twrk70f120m.gcc_arm/debug/usbh/bm/usbh.a(khci.o)
 .text._usb_khci_attach
                0x0000fb8c      0x190 C:/Freescale_BM_USB_Stack_v5.0/Src/output/twrk70f120m.gcc_arm/debug/usbh/bm/usbh.a(khci.o)
 .text._usb_khci_reset
                0x0000fd1c       0x78 C:/Freescale_BM_USB_Stack_v5.0/Src/output/twrk70f120m.gcc_arm/debug/usbh/bm/usbh.a(khci.o)
 .text._usb_khci_detach
                0x0000fd94       0x78 C:/Freescale_BM_USB_Stack_v5.0/Src/output/twrk70f120m.gcc_arm/debug/usbh/bm/usbh.a(khci.o)
 .text._usb_khci_handle_iso_msg
                0x0000fe0c      0x188 C:/Freescale_BM_USB_Stack_v5.0/Src/output/twrk70f120m.gcc_arm/debug/usbh/bm/usbh.a(khci.o)
                0x0000fe0c                _usb_khci_handle_iso_msg
 .text._usb_process_iso_tr
                0x0000ff94       0xa4 C:/Freescale_BM_USB_Stack_v5.0/Src/output/twrk70f120m.gcc_arm/debug/usbh/bm/usbh.a(khci.o)
                0x0000ff94                _usb_process_iso_tr
 .text._usb_khci_task
                0x00010038      0xfb8 C:/Freescale_BM_USB_Stack_v5.0/Src/output/twrk70f120m.gcc_arm/debug/usbh/bm/usbh.a(khci.o)
 .text._usb_khci_task_create
                0x00010ff0       0x60 C:/Freescale_BM_USB_Stack_v5.0/Src/output/twrk70f120m.gcc_arm/debug/usbh/bm/usbh.a(khci.o)
 .text._usb_khci_preinit
                0x00011050       0xd8 C:/Freescale_BM_USB_Stack_v5.0/Src/output/twrk70f120m.gcc_arm/debug/usbh/bm/usbh.a(khci.o)
 .text._usb_khci_init
                0x00011128      0x1e4 C:/Freescale_BM_USB_Stack_v5.0/Src/output/twrk70f120m.gcc_arm/debug/usbh/bm/usbh.a(khci.o)
 .text._usb_khci_shutdown
                0x0001130c      0x13c C:/Freescale_BM_USB_Stack_v5.0/Src/output/twrk70f120m.gcc_arm/debug/usbh/bm/usbh.a(khci.o)
 .text._usb_khci_open_pipe
                0x00011448       0xec C:/Freescale_BM_USB_Stack_v5.0/Src/output/twrk70f120m.gcc_arm/debug/usbh/bm/usbh.a(khci.o)
                0x00011448                _usb_khci_open_pipe
 .text._usb_khci_close_pipe
                0x00011534       0xe8 C:/Freescale_BM_USB_Stack_v5.0/Src/output/twrk70f120m.gcc_arm/debug/usbh/bm/usbh.a(khci.o)
                0x00011534                _usb_khci_close_pipe
 .text._usb_khci_send
                0x0001161c       0xd4 C:/Freescale_BM_USB_Stack_v5.0/Src/output/twrk70f120m.gcc_arm/debug/usbh/bm/usbh.a(khci.o)
 .text._usb_khci_send_setup
                0x000116f0       0xb4 C:/Freescale_BM_USB_Stack_v5.0/Src/output/twrk70f120m.gcc_arm/debug/usbh/bm/usbh.a(khci.o)
 .text._usb_khci_recv
                0x000117a4       0xd4 C:/Freescale_BM_USB_Stack_v5.0/Src/output/twrk70f120m.gcc_arm/debug/usbh/bm/usbh.a(khci.o)
 .text._usb_khci_cancel_pipe
                0x00011878      0x2d0 C:/Freescale_BM_USB_Stack_v5.0/Src/output/twrk70f120m.gcc_arm/debug/usbh/bm/usbh.a(khci.o)
                0x00011878                _usb_khci_cancel_pipe
 .text._usb_khci_bus_control
                0x00011b48       0xc8 C:/Freescale_BM_USB_Stack_v5.0/Src/output/twrk70f120m.gcc_arm/debug/usbh/bm/usbh.a(khci.o)
 .text._usb_khci_get_frame_number
                0x00011c10       0x24 C:/Freescale_BM_USB_Stack_v5.0/Src/output/twrk70f120m.gcc_arm/debug/usbh/bm/usbh.a(khci.o)
 .text._usb_khci_process_tr_complete
                0x00011c34       0xdc C:/Freescale_BM_USB_Stack_v5.0/Src/output/twrk70f120m.gcc_arm/debug/usbh/bm/usbh.a(khci.o)
 .text._usb_khci_tr_done
                0x00011d10      0x340 C:/Freescale_BM_USB_Stack_v5.0/Src/output/twrk70f120m.gcc_arm/debug/usbh/bm/usbh.a(khci.o)
 .text._usb_khci_atom_noblocking_tr
                0x00012050      0x390 C:/Freescale_BM_USB_Stack_v5.0/Src/output/twrk70f120m.gcc_arm/debug/usbh/bm/usbh.a(khci.o)
 .text.usb_class_audio_control_init
                0x000123e0       0x8c C:/Freescale_BM_USB_Stack_v5.0/Src/output/twrk70f120m.gcc_arm/debug/usbh/bm/usbh.a(usb_host_audio_intf.o)
                0x000123e0                usb_class_audio_control_init
 .text.usb_class_audio_control_deinit
                0x0001246c       0x6c C:/Freescale_BM_USB_Stack_v5.0/Src/output/twrk70f120m.gcc_arm/debug/usbh/bm/usbh.a(usb_host_audio_intf.o)
                0x0001246c                usb_class_audio_control_deinit
 .text.usb_class_audio_control_pre_deinit
                0x000124d8       0x68 C:/Freescale_BM_USB_Stack_v5.0/Src/output/twrk70f120m.gcc_arm/debug/usbh/bm/usbh.a(usb_host_audio_intf.o)
                0x000124d8                usb_class_audio_control_pre_deinit
 .text.usb_class_audio_stream_init
                0x00012540      0x218 C:/Freescale_BM_USB_Stack_v5.0/Src/output/twrk70f120m.gcc_arm/debug/usbh/bm/usbh.a(usb_host_audio_intf.o)
                0x00012540                usb_class_audio_stream_init
 .text.usb_class_audio_stream_pre_deinit
                0x00012758       0x90 C:/Freescale_BM_USB_Stack_v5.0/Src/output/twrk70f120m.gcc_arm/debug/usbh/bm/usbh.a(usb_host_audio_intf.o)
                0x00012758                usb_class_audio_stream_pre_deinit
 .text.usb_class_audio_stream_deinit
                0x000127e8       0xa0 C:/Freescale_BM_USB_Stack_v5.0/Src/output/twrk70f120m.gcc_arm/debug/usbh/bm/usbh.a(usb_host_audio_intf.o)
                0x000127e8                usb_class_audio_stream_deinit
 .text.usb_class_cdc_acm_init
                0x00012888      0x178 C:/Freescale_BM_USB_Stack_v5.0/Src/output/twrk70f120m.gcc_arm/debug/usbh/bm/usbh.a(usb_host_cdc_intf.o)
                0x00012888                usb_class_cdc_acm_init
 .text.usb_class_cdc_acm_pre_deinit
                0x00012a00       0x68 C:/Freescale_BM_USB_Stack_v5.0/Src/output/twrk70f120m.gcc_arm/debug/usbh/bm/usbh.a(usb_host_cdc_intf.o)
                0x00012a00                usb_class_cdc_acm_pre_deinit
 .text.usb_class_cdc_acm_deinit
                0x00012a68       0x8c C:/Freescale_BM_USB_Stack_v5.0/Src/output/twrk70f120m.gcc_arm/debug/usbh/bm/usbh.a(usb_host_cdc_intf.o)
                0x00012a68                usb_class_cdc_acm_deinit
 .text.usb_class_cdc_data_init
                0x00012af4      0x268 C:/Freescale_BM_USB_Stack_v5.0/Src/output/twrk70f120m.gcc_arm/debug/usbh/bm/usbh.a(usb_host_cdc_intf.o)
                0x00012af4                usb_class_cdc_data_init
 .text.usb_class_cdc_data_pre_deinit
                0x00012d5c       0x98 C:/Freescale_BM_USB_Stack_v5.0/Src/output/twrk70f120m.gcc_arm/debug/usbh/bm/usbh.a(usb_host_cdc_intf.o)
                0x00012d5c                usb_class_cdc_data_pre_deinit
 .text.usb_class_cdc_data_deinit
                0x00012df4       0xd0 C:/Freescale_BM_USB_Stack_v5.0/Src/output/twrk70f120m.gcc_arm/debug/usbh/bm/usbh.a(usb_host_cdc_intf.o)
                0x00012df4                usb_class_cdc_data_deinit
 .text.usb_class_hub_init
                0x00012ec4      0x1bc C:/Freescale_BM_USB_Stack_v5.0/Src/output/twrk70f120m.gcc_arm/debug/usbh/bm/usbh.a(usb_host_hub.o)
                0x00012ec4                usb_class_hub_init
 .text.usb_class_hub_deinit
                0x00013080       0x6c C:/Freescale_BM_USB_Stack_v5.0/Src/output/twrk70f120m.gcc_arm/debug/usbh/bm/usbh.a(usb_host_hub.o)
                0x00013080                usb_class_hub_deinit
 .text.usb_class_hub_pre_deinit
                0x000130ec       0x68 C:/Freescale_BM_USB_Stack_v5.0/Src/output/twrk70f120m.gcc_arm/debug/usbh/bm/usbh.a(usb_host_hub.o)
                0x000130ec                usb_class_hub_pre_deinit
 .text.usb_class_hub_cntrl_callback
                0x00013154       0x60 C:/Freescale_BM_USB_Stack_v5.0/Src/output/twrk70f120m.gcc_arm/debug/usbh/bm/usbh.a(usb_host_hub.o)
                0x00013154                usb_class_hub_cntrl_callback
 .text.usb_class_hub_cntrl_common
                0x000131b4      0x128 C:/Freescale_BM_USB_Stack_v5.0/Src/output/twrk70f120m.gcc_arm/debug/usbh/bm/usbh.a(usb_host_hub.o)
                0x000131b4                usb_class_hub_cntrl_common
 .text.usb_class_hub_get_descriptor
                0x000132dc       0x3c C:/Freescale_BM_USB_Stack_v5.0/Src/output/twrk70f120m.gcc_arm/debug/usbh/bm/usbh.a(usb_host_hub.o)
                0x000132dc                usb_class_hub_get_descriptor
 .text.usb_class_hub_set_port_feature
                0x00013318       0x40 C:/Freescale_BM_USB_Stack_v5.0/Src/output/twrk70f120m.gcc_arm/debug/usbh/bm/usbh.a(usb_host_hub.o)
                0x00013318                usb_class_hub_set_port_feature
 .text.usb_class_hub_clear_port_feature
                0x00013358       0x40 C:/Freescale_BM_USB_Stack_v5.0/Src/output/twrk70f120m.gcc_arm/debug/usbh/bm/usbh.a(usb_host_hub.o)
                0x00013358                usb_class_hub_clear_port_feature
 .text.usb_class_hub_get_status
                0x00013398       0x3c C:/Freescale_BM_USB_Stack_v5.0/Src/output/twrk70f120m.gcc_arm/debug/usbh/bm/usbh.a(usb_host_hub.o)
                0x00013398                usb_class_hub_get_status
 .text.usb_class_hub_get_port_status
                0x000133d4       0x40 C:/Freescale_BM_USB_Stack_v5.0/Src/output/twrk70f120m.gcc_arm/debug/usbh/bm/usbh.a(usb_host_hub.o)
                0x000133d4                usb_class_hub_get_port_status
 .text.usb_class_hub_recv_bitmap
                0x00013414      0x108 C:/Freescale_BM_USB_Stack_v5.0/Src/output/twrk70f120m.gcc_arm/debug/usbh/bm/usbh.a(usb_host_hub.o)
                0x00013414                usb_class_hub_recv_bitmap
 .text.usb_class_hub_int_callback
                0x0001351c       0x60 C:/Freescale_BM_USB_Stack_v5.0/Src/output/twrk70f120m.gcc_arm/debug/usbh/bm/usbh.a(usb_host_hub.o)
                0x0001351c                usb_class_hub_int_callback
 .text.usb_class_mass_init
                0x0001357c      0x258 C:/Freescale_BM_USB_Stack_v5.0/Src/output/twrk70f120m.gcc_arm/debug/usbh/bm/usbh.a(usb_host_msd_bo.o)
                0x0001357c                usb_class_mass_init
 .text.usb_class_mass_deinit
                0x000137d4       0xa8 C:/Freescale_BM_USB_Stack_v5.0/Src/output/twrk70f120m.gcc_arm/debug/usbh/bm/usbh.a(usb_host_msd_bo.o)
                0x000137d4                usb_class_mass_deinit
 .text.usb_class_mass_pre_deinit
                0x0001387c       0x98 C:/Freescale_BM_USB_Stack_v5.0/Src/output/twrk70f120m.gcc_arm/debug/usbh/bm/usbh.a(usb_host_msd_bo.o)
                0x0001387c                usb_class_mass_pre_deinit
 .text.usb_class_mass_q_init
                0x00013914       0x5c C:/Freescale_BM_USB_Stack_v5.0/Src/output/twrk70f120m.gcc_arm/debug/usbh/bm/usbh.a(usb_host_msd_queue.o)
                0x00013914                usb_class_mass_q_init
 .text.usb_class_phdc_init
                0x00013970      0x594 C:/Freescale_BM_USB_Stack_v5.0/Src/output/twrk70f120m.gcc_arm/debug/usbh/bm/usbh.a(usb_host_phdc.o)
                0x00013970                usb_class_phdc_init
 .text.usb_class_phdc_deinit
                0x00013f04       0xec C:/Freescale_BM_USB_Stack_v5.0/Src/output/twrk70f120m.gcc_arm/debug/usbh/bm/usbh.a(usb_host_phdc.o)
                0x00013f04                usb_class_phdc_deinit
 .text.usb_class_phdc_pre_deinit
                0x00013ff0       0xc8 C:/Freescale_BM_USB_Stack_v5.0/Src/output/twrk70f120m.gcc_arm/debug/usbh/bm/usbh.a(usb_host_phdc.o)
                0x00013ff0                usb_class_phdc_pre_deinit
 .text.usb_class_phdc_free_qos_metadata_list
                0x000140b8       0x3c C:/Freescale_BM_USB_Stack_v5.0/Src/output/twrk70f120m.gcc_arm/debug/usbh/bm/usbh.a(usb_host_phdc.o)
 .text.malloc   0x000140f4       0x10 C:/FREESC~1/CWMCUV~1.7/CROSS_~1/ARM-NO~1/arm-none-eabi/lib/armv7e-m/softfp/libc.a(lib_a-malloc.o)
                0x000140f4                malloc
 .text.free     0x00014104       0x10 C:/FREESC~1/CWMCUV~1.7/CROSS_~1/ARM-NO~1/arm-none-eabi/lib/armv7e-m/softfp/libc.a(lib_a-malloc.o)
                0x00014104                free
 .text._malloc_r
                0x00014114      0x55c C:/FREESC~1/CWMCUV~1.7/CROSS_~1/ARM-NO~1/arm-none-eabi/lib/armv7e-m/softfp/libc.a(lib_a-mallocr.o)
                0x00014114                _malloc_r
 .text.memcpy   0x00014670      0x144 C:/FREESC~1/CWMCUV~1.7/CROSS_~1/ARM-NO~1/arm-none-eabi/lib/armv7e-m/softfp/libc.a(lib_a-memcpy.o)
                0x00014670                memcpy
 .text.memset   0x000147b4      0x12c C:/FREESC~1/CWMCUV~1.7/CROSS_~1/ARM-NO~1/arm-none-eabi/lib/armv7e-m/softfp/libc.a(lib_a-memset.o)
                0x000147b4                memset
 .text.__malloc_lock
                0x000148e0        0x4 C:/FREESC~1/CWMCUV~1.7/CROSS_~1/ARM-NO~1/arm-none-eabi/lib/armv7e-m/softfp/libc.a(lib_a-mlock.o)
                0x000148e0                __malloc_lock
 .text.__malloc_unlock
                0x000148e4        0x4 C:/FREESC~1/CWMCUV~1.7/CROSS_~1/ARM-NO~1/arm-none-eabi/lib/armv7e-m/softfp/libc.a(lib_a-mlock.o)
                0x000148e4                __malloc_unlock
 .text._sbrk_r  0x000148e8       0x24 C:/FREESC~1/CWMCUV~1.7/CROSS_~1/ARM-NO~1/arm-none-eabi/lib/armv7e-m/softfp/libc.a(lib_a-sbrkr.o)
                0x000148e8                _sbrk_r
 .text.strlen   0x0001490c       0x60 C:/FREESC~1/CWMCUV~1.7/CROSS_~1/ARM-NO~1/arm-none-eabi/lib/armv7e-m/softfp/libc.a(lib_a-strlen.o)
                0x0001490c                strlen
 .text._malloc_trim_r
                0x0001496c       0x98 C:/FREESC~1/CWMCUV~1.7/CROSS_~1/ARM-NO~1/arm-none-eabi/lib/armv7e-m/softfp/libc.a(lib_a-freer.o)
                0x0001496c                _malloc_trim_r
 .text._free_r  0x00014a04      0x194 C:/FREESC~1/CWMCUV~1.7/CROSS_~1/ARM-NO~1/arm-none-eabi/lib/armv7e-m/softfp/libc.a(lib_a-freer.o)
                0x00014a04                _free_r
 .text._sbrk    0x00014b98       0x20 C:/FREESC~1/CWMCUV~1.7/CROSS_~1/ARM-NO~1/arm-none-eabi/lib/armv7e-m/softfp/libnosys.a(sbrk.o)
                0x00014b98                _sbrk
 *(.init)
 *(.fini)
 *crtbegin.o(.ctors)
 *crtbegin?.o(.ctors)
 *(EXCLUDE_FILE(*crtend.o *crtend?.o) .ctors)
 *(SORT(.ctors.*))
 *(.ctors)
 *crtbegin.o(.dtors)
 *crtbegin?.o(.dtors)
 *(EXCLUDE_FILE(*crtend.o *crtend?.o) .dtors)
 *(SORT(.dtors.*))
 *(.dtors)
 *(.rodata*)
 .rodata        0x00014bb8      0x574 C:/Freescale_BM_USB_Stack_v5.0/Src/example/host/hid/mouse/bm/make/host_hid_mouse_twrk70f120m/gcc_arm/MK70FN1M0_HOST_Flash_debug/obj/hidmouse.o
 .rodata.__g_regs_PORT_base_addresses
                0x0001512c       0x18 C:/Freescale_BM_USB_Stack_v5.0/Src/example/host/hid/mouse/bm/make/host_hid_mouse_twrk70f120m/gcc_arm/MK70FN1M0_HOST_Flash_debug/obj/init_gpio.o
 .rodata.__g_regs_PORT_base_addresses
                0x00015144       0x18 C:/Freescale_BM_USB_Stack_v5.0/Src/example/host/hid/mouse/bm/make/host_hid_mouse_twrk70f120m/gcc_arm/MK70FN1M0_HOST_Flash_debug/obj/soc_init.o
 .rodata        0x0001515c       0x94 C:/Freescale_BM_USB_Stack_v5.0/Src/output/twrk70f120m.gcc_arm/debug/usbh/bm/usbh.a(usb_host.o)
 .rodata.__g_regs_GPIO_base_addresses
                0x000151f0       0x18 C:/Freescale_BM_USB_Stack_v5.0/Src/output/twrk70f120m.gcc_arm/debug/usbh/bm/usbh.a(usb_host_bsp.o)
 .rodata.__g_regs_PORT_base_addresses
                0x00015208       0x18 C:/Freescale_BM_USB_Stack_v5.0/Src/output/twrk70f120m.gcc_arm/debug/usbh/bm/usbh.a(usb_host_bsp.o)
 .rodata        0x00015220      0x1f4 C:/Freescale_BM_USB_Stack_v5.0/Src/output/twrk70f120m.gcc_arm/debug/usbh/bm/usbh.a(usb_host_ch9.o)
 .rodata        0x00015414       0x58 C:/Freescale_BM_USB_Stack_v5.0/Src/output/twrk70f120m.gcc_arm/debug/usbh/bm/usbh.a(usb_host_common.o)
 .rodata        0x0001546c      0x254 C:/Freescale_BM_USB_Stack_v5.0/Src/output/twrk70f120m.gcc_arm/debug/usbh/bm/usbh.a(usb_host_dev_mng.o)
 .rodata        0x000156c0      0x1c0 C:/Freescale_BM_USB_Stack_v5.0/Src/output/twrk70f120m.gcc_arm/debug/usbh/bm/usbh.a(usb_host_hid.o)
 .rodata        0x00015880      0x6f8 C:/Freescale_BM_USB_Stack_v5.0/Src/output/twrk70f120m.gcc_arm/debug/usbh/bm/usbh.a(usb_host_hub_sm.o)
 .rodata        0x00015f78      0x284 C:/Freescale_BM_USB_Stack_v5.0/Src/output/twrk70f120m.gcc_arm/debug/usbh/bm/usbh.a(ehci_host.o)
 .rodata._usb_ehci_host_api_table
                0x000161fc       0x40 C:/Freescale_BM_USB_Stack_v5.0/Src/output/twrk70f120m.gcc_arm/debug/usbh/bm/usbh.a(ehci_host.o)
                0x000161fc                _usb_ehci_host_api_table
 .rodata        0x0001623c      0x168 C:/Freescale_BM_USB_Stack_v5.0/Src/output/twrk70f120m.gcc_arm/debug/usbh/bm/usbh.a(khci.o)
 .rodata._usb_khci_host_api_table
                0x000163a4       0x40 C:/Freescale_BM_USB_Stack_v5.0/Src/output/twrk70f120m.gcc_arm/debug/usbh/bm/usbh.a(khci.o)
                0x000163a4                _usb_khci_host_api_table
 .rodata        0x000163e4      0x2cc C:/Freescale_BM_USB_Stack_v5.0/Src/output/twrk70f120m.gcc_arm/debug/usbh/bm/usbh.a(usb_host_audio_intf.o)
 .rodata        0x000166b0      0x1f0 C:/Freescale_BM_USB_Stack_v5.0/Src/output/twrk70f120m.gcc_arm/debug/usbh/bm/usbh.a(usb_host_cdc_intf.o)
 .rodata        0x000168a0      0x1b4 C:/Freescale_BM_USB_Stack_v5.0/Src/output/twrk70f120m.gcc_arm/debug/usbh/bm/usbh.a(usb_host_hub.o)
 .rodata        0x00016a54      0x2a4 C:/Freescale_BM_USB_Stack_v5.0/Src/output/twrk70f120m.gcc_arm/debug/usbh/bm/usbh.a(usb_host_msd_bo.o)
 .rodata        0x00016cf8      0x19c C:/Freescale_BM_USB_Stack_v5.0/Src/output/twrk70f120m.gcc_arm/debug/usbh/bm/usbh.a(usb_host_phdc.o)
 .rodata.str1.4
                0x00016e94        0x4 C:/FREESC~1/CWMCUV~1.7/CROSS_~1/ARM-NO~1/arm-none-eabi/lib/armv7e-m/softfp/libc.a(lib_a-impure.o)
 *(.eh_frame*)

.glue_7         0x00016e98        0x0
 .glue_7        0x00000000        0x0 linker stubs

.glue_7t        0x00016e98        0x0
 .glue_7t       0x00000000        0x0 linker stubs

.vfp11_veneer   0x00016e98        0x0
 .vfp11_veneer  0x00000000        0x0 linker stubs

.v4_bx          0x00016e98        0x0
 .v4_bx         0x00000000        0x0 linker stubs

.iplt           0x00016e98        0x0
 .iplt          0x00000000        0x0 C:/Freescale_BM_USB_Stack_v5.0/Src/example/host/hid/mouse/bm/make/host_hid_mouse_twrk70f120m/gcc_arm/MK70FN1M0_HOST_Flash_debug/obj/bmevent.o

.rel.dyn        0x00016e98        0x0
 .rel.iplt      0x00000000        0x0 C:/Freescale_BM_USB_Stack_v5.0/Src/example/host/hid/mouse/bm/make/host_hid_mouse_twrk70f120m/gcc_arm/MK70FN1M0_HOST_Flash_debug/obj/bmevent.o

.ARM.extab
 *(.ARM.extab* .gnu.linkonce.armextab.*)
                0x00016e98                __exidx_start = .

.ARM.exidx
 *(.ARM.exidx* .gnu.linkonce.armexidx.*)
                0x00016e98                __exidx_end = .
                0x00016e98                __etext = .
                0x00016e98                __DATA_ROM = .

.data           0x1fff0410      0x94c load address 0x00016e98
                0x1fff0410                __DATA_RAM = .
                0x1fff0410                __data_start__ = .
 *(vtable)
 *(.data*)
 .data.mouse_data_received
                0x1fff0410        0x4 C:/Freescale_BM_USB_Stack_v5.0/Src/example/host/hid/mouse/bm/make/host_hid_mouse_twrk70f120m/gcc_arm/MK70FN1M0_HOST_Flash_debug/obj/hidmouse.o
                0x1fff0410                mouse_data_received
 .data.DriverInfoTable
                0x1fff0414       0x24 C:/Freescale_BM_USB_Stack_v5.0/Src/example/host/hid/mouse/bm/make/host_hid_mouse_twrk70f120m/gcc_arm/MK70FN1M0_HOST_Flash_debug/obj/hidmouse.o
 .data.pit_vectors
                0x1fff0438       0x10 C:/Freescale_BM_USB_Stack_v5.0/Src/example/host/hid/mouse/bm/make/host_hid_mouse_twrk70f120m/gcc_arm/MK70FN1M0_HOST_Flash_debug/obj/soc_pit.o
                0x1fff0438                pit_vectors
 .data.g_usb_instance_echi
                0x1fff0448        0x8 C:/Freescale_BM_USB_Stack_v5.0/Src/output/twrk70f120m.gcc_arm/debug/usbh/bm/usbh.a(ehci_host.o)
                0x1fff0448                g_usb_instance_echi
 .data.g_usb_instance
                0x1fff0450        0x8 C:/Freescale_BM_USB_Stack_v5.0/Src/output/twrk70f120m.gcc_arm/debug/usbh/bm/usbh.a(khci.o)
                0x1fff0450                g_usb_instance
 .data.s_xfer_sts
                0x1fff0458       0x10 C:/Freescale_BM_USB_Stack_v5.0/Src/output/twrk70f120m.gcc_arm/debug/usbh/bm/usbh.a(khci.o)
 .data.class_interface_map
                0x1fff0468       0xb4 C:/Freescale_BM_USB_Stack_v5.0/Src/output/twrk70f120m.gcc_arm/debug/usbh/bm/usbh.a(usb_classes.o)
                0x1fff0468                class_interface_map
 .data.__malloc_av_
                0x1fff051c      0x408 C:/FREESC~1/CWMCUV~1.7/CROSS_~1/ARM-NO~1/arm-none-eabi/lib/armv7e-m/softfp/libc.a(lib_a-mallocr.o)
                0x1fff051c                __malloc_av_
 .data.__malloc_trim_threshold
                0x1fff0924        0x4 C:/FREESC~1/CWMCUV~1.7/CROSS_~1/ARM-NO~1/arm-none-eabi/lib/armv7e-m/softfp/libc.a(lib_a-mallocr.o)
                0x1fff0924                __malloc_trim_threshold
 .data.__malloc_sbrk_base
                0x1fff0928        0x4 C:/FREESC~1/CWMCUV~1.7/CROSS_~1/ARM-NO~1/arm-none-eabi/lib/armv7e-m/softfp/libc.a(lib_a-mallocr.o)
                0x1fff0928                __malloc_sbrk_base
 *fill*         0x1fff092c        0x4 00
 .data.impure_data
                0x1fff0930      0x428 C:/FREESC~1/CWMCUV~1.7/CROSS_~1/ARM-NO~1/arm-none-eabi/lib/armv7e-m/softfp/libc.a(lib_a-impure.o)
 .data._impure_ptr
                0x1fff0d58        0x4 C:/FREESC~1/CWMCUV~1.7/CROSS_~1/ARM-NO~1/arm-none-eabi/lib/armv7e-m/softfp/libc.a(lib_a-impure.o)
                0x1fff0d58                _impure_ptr
                0x1fff0d5c                . = ALIGN (0x4)
                0x1fff0d5c                PROVIDE (__preinit_array_start, .)
 *(.preinit_array)
                0x1fff0d5c                PROVIDE (__preinit_array_end, .)
                0x1fff0d5c                . = ALIGN (0x4)
                0x1fff0d5c                PROVIDE (__init_array_start, .)
 *(SORT(.init_array.*))
 *(.init_array)
                0x1fff0d5c                PROVIDE (__init_array_end, .)
                0x1fff0d5c                . = ALIGN (0x4)
                0x1fff0d5c                PROVIDE (__fini_array_start, .)
 *(SORT(.fini_array.*))
 *(.fini_array)
                0x1fff0d5c                PROVIDE (__fini_array_end, .)
 *(.jcr*)
                0x1fff0d5c                . = ALIGN (0x4)
                0x1fff0d5c                __data_end__ = .
                0x000177e4                __DATA_END = (__DATA_ROM + SIZEOF (.data))

.igot.plt       0x1fff0d5c        0x0 load address 0x000177e4
 .igot.plt      0x00000000        0x0 C:/Freescale_BM_USB_Stack_v5.0/Src/example/host/hid/mouse/bm/make/host_hid_mouse_twrk70f120m/gcc_arm/MK70FN1M0_HOST_Flash_debug/obj/bmevent.o

.sram_data      0x1fff0d5c      0x2a4 load address 0x000177e4
                0x1fff0e00                . = ALIGN (0x200)
 *fill*         0x1fff0d5c       0xa4 00
                0x1fff0e00                __BDT_BASE = .
 *(.usb_bdt)
 .usb_bdt       0x1fff0e00      0x200 C:/Freescale_BM_USB_Stack_v5.0/Src/output/twrk70f120m.gcc_arm/debug/usbh/bm/usbh.a(khci.o)
                0x1fff1000                __BDT_END = .

.bss            0x1fff1000     0x2120 load address 0x00018000
                0x1fff1000                . = ALIGN (0x4)
                0x1fff1000                __START_BSS = .
                0x1fff1000                __bss_start__ = .
 *(.bss*)
 .bss.mouse_hid_device
                0x1fff1000       0x10 C:/Freescale_BM_USB_Stack_v5.0/Src/example/host/hid/mouse/bm/make/host_hid_mouse_twrk70f120m/gcc_arm/MK70FN1M0_HOST_Flash_debug/obj/hidmouse.o
                0x1fff1000                mouse_hid_device
 .bss.mouse_usb_event
                0x1fff1010        0x4 C:/Freescale_BM_USB_Stack_v5.0/Src/example/host/hid/mouse/bm/make/host_hid_mouse_twrk70f120m/gcc_arm/MK70FN1M0_HOST_Flash_debug/obj/hidmouse.o
                0x1fff1010                mouse_usb_event
 .bss.mouse_hid_com
                0x1fff1014        0x4 C:/Freescale_BM_USB_Stack_v5.0/Src/example/host/hid/mouse/bm/make/host_hid_mouse_twrk70f120m/gcc_arm/MK70FN1M0_HOST_Flash_debug/obj/hidmouse.o
                0x1fff1014                mouse_hid_com
 .bss.mouse_buffer
                0x1fff1018        0x4 C:/Freescale_BM_USB_Stack_v5.0/Src/example/host/hid/mouse/bm/make/host_hid_mouse_twrk70f120m/gcc_arm/MK70FN1M0_HOST_Flash_debug/obj/hidmouse.o
                0x1fff1018                mouse_buffer
 .bss.mouse_reportDescriptor
                0x1fff101c        0x4 C:/Freescale_BM_USB_Stack_v5.0/Src/example/host/hid/mouse/bm/make/host_hid_mouse_twrk70f120m/gcc_arm/MK70FN1M0_HOST_Flash_debug/obj/hidmouse.o
                0x1fff101c                mouse_reportDescriptor
 .bss.mouse_size
                0x1fff1020        0x2 C:/Freescale_BM_USB_Stack_v5.0/Src/example/host/hid/mouse/bm/make/host_hid_mouse_twrk70f120m/gcc_arm/MK70FN1M0_HOST_Flash_debug/obj/hidmouse.o
                0x1fff1020                mouse_size
 .bss.mouse_reportLength
                0x1fff1022        0x2 C:/Freescale_BM_USB_Stack_v5.0/Src/example/host/hid/mouse/bm/make/host_hid_mouse_twrk70f120m/gcc_arm/MK70FN1M0_HOST_Flash_debug/obj/hidmouse.o
                0x1fff1022                mouse_reportLength
 .bss.mouse_interface_number
                0x1fff1024        0x1 C:/Freescale_BM_USB_Stack_v5.0/Src/example/host/hid/mouse/bm/make/host_hid_mouse_twrk70f120m/gcc_arm/MK70FN1M0_HOST_Flash_debug/obj/hidmouse.o
                0x1fff1024                mouse_interface_number
 *fill*         0x1fff1025        0x3 00
 .bss.host_handle
                0x1fff1028        0x4 C:/Freescale_BM_USB_Stack_v5.0/Src/example/host/hid/mouse/bm/make/host_hid_mouse_twrk70f120m/gcc_arm/MK70FN1M0_HOST_Flash_debug/obj/hidmouse.o
                0x1fff1028                host_handle
 .bss.i.9264    0x1fff102c        0x1 C:/Freescale_BM_USB_Stack_v5.0/Src/example/host/hid/mouse/bm/make/host_hid_mouse_twrk70f120m/gcc_arm/MK70FN1M0_HOST_Flash_debug/obj/hidmouse.o
 *fill*         0x1fff102d        0x3 00
 .bss.g_sci_ptr
                0x1fff1030        0x4 C:/Freescale_BM_USB_Stack_v5.0/Src/example/host/hid/mouse/bm/make/host_hid_mouse_twrk70f120m/gcc_arm/MK70FN1M0_HOST_Flash_debug/obj/sci.o
                0x1fff1030                g_sci_ptr
 .bss.lowlevel_usb_isr_89
                0x1fff1034        0x4 C:/Freescale_BM_USB_Stack_v5.0/Src/example/host/hid/mouse/bm/make/host_hid_mouse_twrk70f120m/gcc_arm/MK70FN1M0_HOST_Flash_debug/obj/soc_isr.o
 .bss.isr_param_89
                0x1fff1038        0x4 C:/Freescale_BM_USB_Stack_v5.0/Src/example/host/hid/mouse/bm/make/host_hid_mouse_twrk70f120m/gcc_arm/MK70FN1M0_HOST_Flash_debug/obj/soc_isr.o
 .bss.isr_param_uart2_isr
                0x1fff103c        0x4 C:/Freescale_BM_USB_Stack_v5.0/Src/example/host/hid/mouse/bm/make/host_hid_mouse_twrk70f120m/gcc_arm/MK70FN1M0_HOST_Flash_debug/obj/soc_isr.o
 .bss.lowlevel_usb_isr_112
                0x1fff1040        0x4 C:/Freescale_BM_USB_Stack_v5.0/Src/example/host/hid/mouse/bm/make/host_hid_mouse_twrk70f120m/gcc_arm/MK70FN1M0_HOST_Flash_debug/obj/soc_isr.o
 .bss.isr_param_112
                0x1fff1044        0x4 C:/Freescale_BM_USB_Stack_v5.0/Src/example/host/hid/mouse/bm/make/host_hid_mouse_twrk70f120m/gcc_arm/MK70FN1M0_HOST_Flash_debug/obj/soc_isr.o
 .bss.lowlevel_pit0_isr
                0x1fff1048        0x4 C:/Freescale_BM_USB_Stack_v5.0/Src/example/host/hid/mouse/bm/make/host_hid_mouse_twrk70f120m/gcc_arm/MK70FN1M0_HOST_Flash_debug/obj/soc_isr.o
 .bss.lowlevel_pit1_isr
                0x1fff104c        0x4 C:/Freescale_BM_USB_Stack_v5.0/Src/example/host/hid/mouse/bm/make/host_hid_mouse_twrk70f120m/gcc_arm/MK70FN1M0_HOST_Flash_debug/obj/soc_isr.o
 .bss.lowlevel_uart2_isr
                0x1fff1050        0x4 C:/Freescale_BM_USB_Stack_v5.0/Src/example/host/hid/mouse/bm/make/host_hid_mouse_twrk70f120m/gcc_arm/MK70FN1M0_HOST_Flash_debug/obj/soc_isr.o
 .bss.g_usb_host
                0x1fff1054      0x890 C:/Freescale_BM_USB_Stack_v5.0/Src/output/twrk70f120m.gcc_arm/debug/usbh/bm/usbh.a(usb_host.o)
 *fill*         0x1fff18e4      0x71c 00
 .bss.usbhs_perodic_list
                0x1fff2000     0x1000 C:/Freescale_BM_USB_Stack_v5.0/Src/output/twrk70f120m.gcc_arm/debug/usbh/bm/usbh.a(ehci_host.o)
 .bss.usb_host_ptr.10380
                0x1fff3000        0x4 C:/Freescale_BM_USB_Stack_v5.0/Src/output/twrk70f120m.gcc_arm/debug/usbh/bm/usbh.a(ehci_host.o)
 .bss._usb_khci_swap_buf_ptr
                0x1fff3004        0x4 C:/Freescale_BM_USB_Stack_v5.0/Src/output/twrk70f120m.gcc_arm/debug/usbh/bm/usbh.a(khci.o)
 .bss.curr_msg  0x1fff3008       0x1c C:/Freescale_BM_USB_Stack_v5.0/Src/output/twrk70f120m.gcc_arm/debug/usbh/bm/usbh.a(khci.o)
 .bss.done_msg  0x1fff3024       0x1c C:/Freescale_BM_USB_Stack_v5.0/Src/output/twrk70f120m.gcc_arm/debug/usbh/bm/usbh.a(khci.o)
 .bss.tr_state  0x1fff3040        0x4 C:/Freescale_BM_USB_Stack_v5.0/Src/output/twrk70f120m.gcc_arm/debug/usbh/bm/usbh.a(khci.o)
 .bss.deattached
                0x1fff3044        0x4 C:/Freescale_BM_USB_Stack_v5.0/Src/output/twrk70f120m.gcc_arm/debug/usbh/bm/usbh.a(khci.o)
 .bss.remain.9758
                0x1fff3048        0x4 C:/Freescale_BM_USB_Stack_v5.0/Src/output/twrk70f120m.gcc_arm/debug/usbh/bm/usbh.a(khci.o)
 .bss.res.9760  0x1fff304c        0x4 C:/Freescale_BM_USB_Stack_v5.0/Src/output/twrk70f120m.gcc_arm/debug/usbh/bm/usbh.a(khci.o)
 .bss.required.9759
                0x1fff3050        0x4 C:/Freescale_BM_USB_Stack_v5.0/Src/output/twrk70f120m.gcc_arm/debug/usbh/bm/usbh.a(khci.o)
 .bss.old_frame_number.9650
                0x1fff3054        0x2 C:/Freescale_BM_USB_Stack_v5.0/Src/output/twrk70f120m.gcc_arm/debug/usbh/bm/usbh.a(khci.o)
 *fill*         0x1fff3056        0x2 00
 .bss.total_frame_number.9649
                0x1fff3058        0x4 C:/Freescale_BM_USB_Stack_v5.0/Src/output/twrk70f120m.gcc_arm/debug/usbh/bm/usbh.a(khci.o)
 .bss.__malloc_max_total_mem
                0x1fff305c        0x4 C:/FREESC~1/CWMCUV~1.7/CROSS_~1/ARM-NO~1/arm-none-eabi/lib/armv7e-m/softfp/libc.a(lib_a-mallocr.o)
                0x1fff305c                __malloc_max_total_mem
 .bss.__malloc_max_sbrked_mem
                0x1fff3060        0x4 C:/FREESC~1/CWMCUV~1.7/CROSS_~1/ARM-NO~1/arm-none-eabi/lib/armv7e-m/softfp/libc.a(lib_a-mallocr.o)
                0x1fff3060                __malloc_max_sbrked_mem
 .bss.__malloc_top_pad
                0x1fff3064        0x4 C:/FREESC~1/CWMCUV~1.7/CROSS_~1/ARM-NO~1/arm-none-eabi/lib/armv7e-m/softfp/libc.a(lib_a-mallocr.o)
                0x1fff3064                __malloc_top_pad
 .bss.__malloc_current_mallinfo
                0x1fff3068       0x28 C:/FREESC~1/CWMCUV~1.7/CROSS_~1/ARM-NO~1/arm-none-eabi/lib/armv7e-m/softfp/libc.a(lib_a-mallocr.o)
                0x1fff3068                __malloc_current_mallinfo
 .bss.heap_end.4058
                0x1fff3090        0x4 C:/FREESC~1/CWMCUV~1.7/CROSS_~1/ARM-NO~1/arm-none-eabi/lib/armv7e-m/softfp/libnosys.a(sbrk.o)
 *(COMMON)
 COMMON         0x1fff3094       0x10 C:/Freescale_BM_USB_Stack_v5.0/Src/example/host/hid/mouse/bm/make/host_hid_mouse_twrk70f120m/gcc_arm/MK70FN1M0_HOST_Flash_debug/obj/hidmouse.o
                0x1fff3094                mouse_interface_info
 COMMON         0x1fff30a4        0x4 C:/Freescale_BM_USB_Stack_v5.0/Src/example/host/hid/mouse/bm/make/host_hid_mouse_twrk70f120m/gcc_arm/MK70FN1M0_HOST_Flash_debug/obj/nvic.o
                0x1fff30a4                g_usb_lock_level
 COMMON         0x1fff30a8        0x4 C:/Freescale_BM_USB_Stack_v5.0/Src/example/host/hid/mouse/bm/make/host_hid_mouse_twrk70f120m/gcc_arm/MK70FN1M0_HOST_Flash_debug/obj/pit_delay.o
                0x1fff30a8                delay_count
 COMMON         0x1fff30ac       0x2c C:/Freescale_BM_USB_Stack_v5.0/Src/example/host/hid/mouse/bm/make/host_hid_mouse_twrk70f120m/gcc_arm/MK70FN1M0_HOST_Flash_debug/obj/poll.o
                0x1fff30ac                g_poll
 COMMON         0x1fff30d8        0xc C:/Freescale_BM_USB_Stack_v5.0/Src/example/host/hid/mouse/bm/make/host_hid_mouse_twrk70f120m/gcc_arm/MK70FN1M0_HOST_Flash_debug/obj/rtc_kinetis.o
                0x1fff30d8                ms_count
                0x1fff30dc                g_TimerObjectArray
 COMMON         0x1fff30e4       0x28 C:/Freescale_BM_USB_Stack_v5.0/Src/output/twrk70f120m.gcc_arm/debug/usbh/bm/usbh.a(adapter_bm.o)
                0x1fff30e4                registered_function
 COMMON         0x1fff310c        0x4 C:/Freescale_BM_USB_Stack_v5.0/Src/output/twrk70f120m.gcc_arm/debug/usbh/bm/usbh.a(ehci_host.o)
                0x1fff310c                ehci_host_task_id
 COMMON         0x1fff3110        0xc C:/Freescale_BM_USB_Stack_v5.0/Src/output/twrk70f120m.gcc_arm/debug/usbh/bm/usbh.a(khci.o)
                0x1fff3110                task_id
                0x1fff3114                usb_host_global_handler
                0x1fff3118                pin
 COMMON         0x1fff311c        0x4 C:/FREESC~1/CWMCUV~1.7/CROSS_~1/ARM-NO~1/arm-none-eabi/lib/armv7e-m/softfp/libc.a(lib_a-reent.o)
                0x1fff311c                errno
                0x1fff3120                . = ALIGN (0x4)
                0x1fff3120                __bss_end__ = .
                0x1fff3120                __END_BSS = .

.heap           0x1fff3120     0x5000
                0x1fff3120                __end__ = .
                0x1fff3120                PROVIDE (end, .)
 *(.heap*)
 .heap          0x1fff3120     0x5000 C:/Freescale_BM_USB_Stack_v5.0/Src/example/host/hid/mouse/bm/make/host_hid_mouse_twrk70f120m/gcc_arm/MK70FN1M0_HOST_Flash_debug/obj/startup_MK70FN1M012.o
                0x1fff3120                __HeapBase
                0x1fff8120                __HeapLimit = .

.stack          0x1fff3120     0x1000
 *(.stack*)
 .stack         0x1fff3120     0x1000 C:/Freescale_BM_USB_Stack_v5.0/Src/example/host/hid/mouse/bm/make/host_hid_mouse_twrk70f120m/gcc_arm/MK70FN1M0_HOST_Flash_debug/obj/startup_MK70FN1M012.o
                0x20010000                __StackTop = (ORIGIN (ram) + 0x1fbf0)
                0x2000f000                __StackLimit = (__StackTop - SIZEOF (.stack))
                0x20010000                PROVIDE (__stack, __StackTop)
                0x00000001                ASSERT ((__StackLimit >= __HeapLimit), region RAM overflowed with stack)
OUTPUT(gcc_arm/MK70FN1M0_HOST_Flash_debug/host_hid_mouse_twrk70f120m.elf elf32-littlearm)

.debug_info     0x00000000    0x21014
 .debug_info    0x00000000      0x236 C:/Freescale_BM_USB_Stack_v5.0/Src/example/host/hid/mouse/bm/make/host_hid_mouse_twrk70f120m/gcc_arm/MK70FN1M0_HOST_Flash_debug/obj/bmevent.o
 .debug_info    0x00000236      0x1d7 C:/Freescale_BM_USB_Stack_v5.0/Src/example/host/hid/mouse/bm/make/host_hid_mouse_twrk70f120m/gcc_arm/MK70FN1M0_HOST_Flash_debug/obj/bmisr.o
 .debug_info    0x0000040d      0x39b C:/Freescale_BM_USB_Stack_v5.0/Src/example/host/hid/mouse/bm/make/host_hid_mouse_twrk70f120m/gcc_arm/MK70FN1M0_HOST_Flash_debug/obj/bmmsgq.o
 .debug_info    0x000007a8      0x1b3 C:/Freescale_BM_USB_Stack_v5.0/Src/example/host/hid/mouse/bm/make/host_hid_mouse_twrk70f120m/gcc_arm/MK70FN1M0_HOST_Flash_debug/obj/bmsem.o
 .debug_info    0x0000095b      0xce0 C:/Freescale_BM_USB_Stack_v5.0/Src/example/host/hid/mouse/bm/make/host_hid_mouse_twrk70f120m/gcc_arm/MK70FN1M0_HOST_Flash_debug/obj/hidmouse.o
 .debug_info    0x0000163b      0x525 C:/Freescale_BM_USB_Stack_v5.0/Src/example/host/hid/mouse/bm/make/host_hid_mouse_twrk70f120m/gcc_arm/MK70FN1M0_HOST_Flash_debug/obj/init_gpio.o
 .debug_info    0x00001b60      0x142 C:/Freescale_BM_USB_Stack_v5.0/Src/example/host/hid/mouse/bm/make/host_hid_mouse_twrk70f120m/gcc_arm/MK70FN1M0_HOST_Flash_debug/obj/main_kinetis.o
 .debug_info    0x00001ca2      0x1a1 C:/Freescale_BM_USB_Stack_v5.0/Src/example/host/hid/mouse/bm/make/host_hid_mouse_twrk70f120m/gcc_arm/MK70FN1M0_HOST_Flash_debug/obj/mem_util.o
 .debug_info    0x00001e43      0x2f2 C:/Freescale_BM_USB_Stack_v5.0/Src/example/host/hid/mouse/bm/make/host_hid_mouse_twrk70f120m/gcc_arm/MK70FN1M0_HOST_Flash_debug/obj/nvic.o
 .debug_info    0x00002135      0x1d5 C:/Freescale_BM_USB_Stack_v5.0/Src/example/host/hid/mouse/bm/make/host_hid_mouse_twrk70f120m/gcc_arm/MK70FN1M0_HOST_Flash_debug/obj/pit_delay.o
 .debug_info    0x0000230a      0x20e C:/Freescale_BM_USB_Stack_v5.0/Src/example/host/hid/mouse/bm/make/host_hid_mouse_twrk70f120m/gcc_arm/MK70FN1M0_HOST_Flash_debug/obj/poll.o
 .debug_info    0x00002518      0x52f C:/Freescale_BM_USB_Stack_v5.0/Src/example/host/hid/mouse/bm/make/host_hid_mouse_twrk70f120m/gcc_arm/MK70FN1M0_HOST_Flash_debug/obj/printf.o
 .debug_info    0x00002a47      0x2e7 C:/Freescale_BM_USB_Stack_v5.0/Src/example/host/hid/mouse/bm/make/host_hid_mouse_twrk70f120m/gcc_arm/MK70FN1M0_HOST_Flash_debug/obj/rtc_kinetis.o
 .debug_info    0x00002d2e      0x57e C:/Freescale_BM_USB_Stack_v5.0/Src/example/host/hid/mouse/bm/make/host_hid_mouse_twrk70f120m/gcc_arm/MK70FN1M0_HOST_Flash_debug/obj/sci.o
 .debug_info    0x000032ac      0xe71 C:/Freescale_BM_USB_Stack_v5.0/Src/example/host/hid/mouse/bm/make/host_hid_mouse_twrk70f120m/gcc_arm/MK70FN1M0_HOST_Flash_debug/obj/soc_init.o
 .debug_info    0x0000411d      0x57d C:/Freescale_BM_USB_Stack_v5.0/Src/example/host/hid/mouse/bm/make/host_hid_mouse_twrk70f120m/gcc_arm/MK70FN1M0_HOST_Flash_debug/obj/soc_isr.o
 .debug_info    0x0000469a      0x970 C:/Freescale_BM_USB_Stack_v5.0/Src/example/host/hid/mouse/bm/make/host_hid_mouse_twrk70f120m/gcc_arm/MK70FN1M0_HOST_Flash_debug/obj/soc_pit.o
 .debug_info    0x0000500a      0x839 C:/Freescale_BM_USB_Stack_v5.0/Src/example/host/hid/mouse/bm/make/host_hid_mouse_twrk70f120m/gcc_arm/MK70FN1M0_HOST_Flash_debug/obj/soc_sci.o
 .debug_info    0x00005843      0x455 C:/Freescale_BM_USB_Stack_v5.0/Src/example/host/hid/mouse/bm/make/host_hid_mouse_twrk70f120m/gcc_arm/MK70FN1M0_HOST_Flash_debug/obj/soc_usb.o
 .debug_info    0x00005c98      0x34b C:/Freescale_BM_USB_Stack_v5.0/Src/example/host/hid/mouse/bm/make/host_hid_mouse_twrk70f120m/gcc_arm/MK70FN1M0_HOST_Flash_debug/obj/startup.o
 .debug_info    0x00005fe3       0xdb C:/Freescale_BM_USB_Stack_v5.0/Src/example/host/hid/mouse/bm/make/host_hid_mouse_twrk70f120m/gcc_arm/MK70FN1M0_HOST_Flash_debug/obj/startup_MK70FN1M012.o
 .debug_info    0x000060be      0x20b C:/Freescale_BM_USB_Stack_v5.0/Src/example/host/hid/mouse/bm/make/host_hid_mouse_twrk70f120m/gcc_arm/MK70FN1M0_HOST_Flash_debug/obj/system_MK70FN1M012.o
 .debug_info    0x000062c9      0x911 C:/Freescale_BM_USB_Stack_v5.0/Src/output/twrk70f120m.gcc_arm/debug/usbh/bm/usbh.a(adapter_bm.o)
 .debug_info    0x00006bda     0x1f07 C:/Freescale_BM_USB_Stack_v5.0/Src/output/twrk70f120m.gcc_arm/debug/usbh/bm/usbh.a(usb_host.o)
 .debug_info    0x00008ae1      0xd8f C:/Freescale_BM_USB_Stack_v5.0/Src/output/twrk70f120m.gcc_arm/debug/usbh/bm/usbh.a(usb_host_bsp.o)
 .debug_info    0x00009870     0x1a35 C:/Freescale_BM_USB_Stack_v5.0/Src/output/twrk70f120m.gcc_arm/debug/usbh/bm/usbh.a(usb_host_ch9.o)
 .debug_info    0x0000b2a5     0x13f8 C:/Freescale_BM_USB_Stack_v5.0/Src/output/twrk70f120m.gcc_arm/debug/usbh/bm/usbh.a(usb_host_common.o)
 .debug_info    0x0000c69d     0x1b0c C:/Freescale_BM_USB_Stack_v5.0/Src/output/twrk70f120m.gcc_arm/debug/usbh/bm/usbh.a(usb_host_dev_mng.o)
 .debug_info    0x0000e1a9      0xc27 C:/Freescale_BM_USB_Stack_v5.0/Src/output/twrk70f120m.gcc_arm/debug/usbh/bm/usbh.a(usb_host_hid.o)
 .debug_info    0x0000edd0     0x175f C:/Freescale_BM_USB_Stack_v5.0/Src/output/twrk70f120m.gcc_arm/debug/usbh/bm/usbh.a(usb_host_hub_sm.o)
 .debug_info    0x0001052f     0x5bac C:/Freescale_BM_USB_Stack_v5.0/Src/output/twrk70f120m.gcc_arm/debug/usbh/bm/usbh.a(ehci_host.o)
 .debug_info    0x000160db     0x2f49 C:/Freescale_BM_USB_Stack_v5.0/Src/output/twrk70f120m.gcc_arm/debug/usbh/bm/usbh.a(khci.o)
 .debug_info    0x00019024      0x255 C:/Freescale_BM_USB_Stack_v5.0/Src/output/twrk70f120m.gcc_arm/debug/usbh/bm/usbh.a(usb_classes.o)
 .debug_info    0x00019279     0x1029 C:/Freescale_BM_USB_Stack_v5.0/Src/output/twrk70f120m.gcc_arm/debug/usbh/bm/usbh.a(usb_host_audio_intf.o)
 .debug_info    0x0001a2a2     0x2013 C:/Freescale_BM_USB_Stack_v5.0/Src/output/twrk70f120m.gcc_arm/debug/usbh/bm/usbh.a(usb_host_cdc_intf.o)
 .debug_info    0x0001c2b5      0xbee C:/Freescale_BM_USB_Stack_v5.0/Src/output/twrk70f120m.gcc_arm/debug/usbh/bm/usbh.a(usb_host_hub.o)
 .debug_info    0x0001cea3     0x1c52 C:/Freescale_BM_USB_Stack_v5.0/Src/output/twrk70f120m.gcc_arm/debug/usbh/bm/usbh.a(usb_host_msd_bo.o)
 .debug_info    0x0001eaf5      0x82b C:/Freescale_BM_USB_Stack_v5.0/Src/output/twrk70f120m.gcc_arm/debug/usbh/bm/usbh.a(usb_host_msd_queue.o)
 .debug_info    0x0001f320     0x1cf4 C:/Freescale_BM_USB_Stack_v5.0/Src/output/twrk70f120m.gcc_arm/debug/usbh/bm/usbh.a(usb_host_phdc.o)

.debug_abbrev   0x00000000     0x340a
 .debug_abbrev  0x00000000       0xd8 C:/Freescale_BM_USB_Stack_v5.0/Src/example/host/hid/mouse/bm/make/host_hid_mouse_twrk70f120m/gcc_arm/MK70FN1M0_HOST_Flash_debug/obj/bmevent.o
 .debug_abbrev  0x000000d8       0xb0 C:/Freescale_BM_USB_Stack_v5.0/Src/example/host/hid/mouse/bm/make/host_hid_mouse_twrk70f120m/gcc_arm/MK70FN1M0_HOST_Flash_debug/obj/bmisr.o
 .debug_abbrev  0x00000188      0x104 C:/Freescale_BM_USB_Stack_v5.0/Src/example/host/hid/mouse/bm/make/host_hid_mouse_twrk70f120m/gcc_arm/MK70FN1M0_HOST_Flash_debug/obj/bmmsgq.o
 .debug_abbrev  0x0000028c       0x8c C:/Freescale_BM_USB_Stack_v5.0/Src/example/host/hid/mouse/bm/make/host_hid_mouse_twrk70f120m/gcc_arm/MK70FN1M0_HOST_Flash_debug/obj/bmsem.o
 .debug_abbrev  0x00000318      0x1cb C:/Freescale_BM_USB_Stack_v5.0/Src/example/host/hid/mouse/bm/make/host_hid_mouse_twrk70f120m/gcc_arm/MK70FN1M0_HOST_Flash_debug/obj/hidmouse.o
 .debug_abbrev  0x000004e3      0x136 C:/Freescale_BM_USB_Stack_v5.0/Src/example/host/hid/mouse/bm/make/host_hid_mouse_twrk70f120m/gcc_arm/MK70FN1M0_HOST_Flash_debug/obj/init_gpio.o
 .debug_abbrev  0x00000619       0x88 C:/Freescale_BM_USB_Stack_v5.0/Src/example/host/hid/mouse/bm/make/host_hid_mouse_twrk70f120m/gcc_arm/MK70FN1M0_HOST_Flash_debug/obj/main_kinetis.o
 .debug_abbrev  0x000006a1       0xae C:/Freescale_BM_USB_Stack_v5.0/Src/example/host/hid/mouse/bm/make/host_hid_mouse_twrk70f120m/gcc_arm/MK70FN1M0_HOST_Flash_debug/obj/mem_util.o
 .debug_abbrev  0x0000074f       0xf1 C:/Freescale_BM_USB_Stack_v5.0/Src/example/host/hid/mouse/bm/make/host_hid_mouse_twrk70f120m/gcc_arm/MK70FN1M0_HOST_Flash_debug/obj/nvic.o
 .debug_abbrev  0x00000840       0xb3 C:/Freescale_BM_USB_Stack_v5.0/Src/example/host/hid/mouse/bm/make/host_hid_mouse_twrk70f120m/gcc_arm/MK70FN1M0_HOST_Flash_debug/obj/pit_delay.o
 .debug_abbrev  0x000008f3       0xe2 C:/Freescale_BM_USB_Stack_v5.0/Src/example/host/hid/mouse/bm/make/host_hid_mouse_twrk70f120m/gcc_arm/MK70FN1M0_HOST_Flash_debug/obj/poll.o
 .debug_abbrev  0x000009d5      0x1bb C:/Freescale_BM_USB_Stack_v5.0/Src/example/host/hid/mouse/bm/make/host_hid_mouse_twrk70f120m/gcc_arm/MK70FN1M0_HOST_Flash_debug/obj/printf.o
 .debug_abbrev  0x00000b90       0xfe C:/Freescale_BM_USB_Stack_v5.0/Src/example/host/hid/mouse/bm/make/host_hid_mouse_twrk70f120m/gcc_arm/MK70FN1M0_HOST_Flash_debug/obj/rtc_kinetis.o
 .debug_abbrev  0x00000c8e      0x15f C:/Freescale_BM_USB_Stack_v5.0/Src/example/host/hid/mouse/bm/make/host_hid_mouse_twrk70f120m/gcc_arm/MK70FN1M0_HOST_Flash_debug/obj/sci.o
 .debug_abbrev  0x00000ded      0x1b0 C:/Freescale_BM_USB_Stack_v5.0/Src/example/host/hid/mouse/bm/make/host_hid_mouse_twrk70f120m/gcc_arm/MK70FN1M0_HOST_Flash_debug/obj/soc_init.o
 .debug_abbrev  0x00000f9d       0xce C:/Freescale_BM_USB_Stack_v5.0/Src/example/host/hid/mouse/bm/make/host_hid_mouse_twrk70f120m/gcc_arm/MK70FN1M0_HOST_Flash_debug/obj/soc_isr.o
 .debug_abbrev  0x0000106b      0x19c C:/Freescale_BM_USB_Stack_v5.0/Src/example/host/hid/mouse/bm/make/host_hid_mouse_twrk70f120m/gcc_arm/MK70FN1M0_HOST_Flash_debug/obj/soc_pit.o
 .debug_abbrev  0x00001207      0x131 C:/Freescale_BM_USB_Stack_v5.0/Src/example/host/hid/mouse/bm/make/host_hid_mouse_twrk70f120m/gcc_arm/MK70FN1M0_HOST_Flash_debug/obj/soc_sci.o
 .debug_abbrev  0x00001338       0xa0 C:/Freescale_BM_USB_Stack_v5.0/Src/example/host/hid/mouse/bm/make/host_hid_mouse_twrk70f120m/gcc_arm/MK70FN1M0_HOST_Flash_debug/obj/soc_usb.o
 .debug_abbrev  0x000013d8       0xf6 C:/Freescale_BM_USB_Stack_v5.0/Src/example/host/hid/mouse/bm/make/host_hid_mouse_twrk70f120m/gcc_arm/MK70FN1M0_HOST_Flash_debug/obj/startup.o
 .debug_abbrev  0x000014ce       0x12 C:/Freescale_BM_USB_Stack_v5.0/Src/example/host/hid/mouse/bm/make/host_hid_mouse_twrk70f120m/gcc_arm/MK70FN1M0_HOST_Flash_debug/obj/startup_MK70FN1M012.o
 .debug_abbrev  0x000014e0       0x9e C:/Freescale_BM_USB_Stack_v5.0/Src/example/host/hid/mouse/bm/make/host_hid_mouse_twrk70f120m/gcc_arm/MK70FN1M0_HOST_Flash_debug/obj/system_MK70FN1M012.o
 .debug_abbrev  0x0000157e      0x158 C:/Freescale_BM_USB_Stack_v5.0/Src/output/twrk70f120m.gcc_arm/debug/usbh/bm/usbh.a(adapter_bm.o)
 .debug_abbrev  0x000016d6      0x1ef C:/Freescale_BM_USB_Stack_v5.0/Src/output/twrk70f120m.gcc_arm/debug/usbh/bm/usbh.a(usb_host.o)
 .debug_abbrev  0x000018c5      0x183 C:/Freescale_BM_USB_Stack_v5.0/Src/output/twrk70f120m.gcc_arm/debug/usbh/bm/usbh.a(usb_host_bsp.o)
 .debug_abbrev  0x00001a48      0x1a9 C:/Freescale_BM_USB_Stack_v5.0/Src/output/twrk70f120m.gcc_arm/debug/usbh/bm/usbh.a(usb_host_ch9.o)
 .debug_abbrev  0x00001bf1      0x1a9 C:/Freescale_BM_USB_Stack_v5.0/Src/output/twrk70f120m.gcc_arm/debug/usbh/bm/usbh.a(usb_host_common.o)
 .debug_abbrev  0x00001d9a      0x1bc C:/Freescale_BM_USB_Stack_v5.0/Src/output/twrk70f120m.gcc_arm/debug/usbh/bm/usbh.a(usb_host_dev_mng.o)
 .debug_abbrev  0x00001f56      0x19c C:/Freescale_BM_USB_Stack_v5.0/Src/output/twrk70f120m.gcc_arm/debug/usbh/bm/usbh.a(usb_host_hid.o)
 .debug_abbrev  0x000020f2      0x234 C:/Freescale_BM_USB_Stack_v5.0/Src/output/twrk70f120m.gcc_arm/debug/usbh/bm/usbh.a(usb_host_hub_sm.o)
 .debug_abbrev  0x00002326      0x28e C:/Freescale_BM_USB_Stack_v5.0/Src/output/twrk70f120m.gcc_arm/debug/usbh/bm/usbh.a(ehci_host.o)
 .debug_abbrev  0x000025b4      0x2ea C:/Freescale_BM_USB_Stack_v5.0/Src/output/twrk70f120m.gcc_arm/debug/usbh/bm/usbh.a(khci.o)
 .debug_abbrev  0x0000289e       0xaa C:/Freescale_BM_USB_Stack_v5.0/Src/output/twrk70f120m.gcc_arm/debug/usbh/bm/usbh.a(usb_classes.o)
 .debug_abbrev  0x00002948      0x1c8 C:/Freescale_BM_USB_Stack_v5.0/Src/output/twrk70f120m.gcc_arm/debug/usbh/bm/usbh.a(usb_host_audio_intf.o)
 .debug_abbrev  0x00002b10      0x1f5 C:/Freescale_BM_USB_Stack_v5.0/Src/output/twrk70f120m.gcc_arm/debug/usbh/bm/usbh.a(usb_host_cdc_intf.o)
 .debug_abbrev  0x00002d05      0x189 C:/Freescale_BM_USB_Stack_v5.0/Src/output/twrk70f120m.gcc_arm/debug/usbh/bm/usbh.a(usb_host_hub.o)
 .debug_abbrev  0x00002e8e      0x223 C:/Freescale_BM_USB_Stack_v5.0/Src/output/twrk70f120m.gcc_arm/debug/usbh/bm/usbh.a(usb_host_msd_bo.o)
 .debug_abbrev  0x000030b1      0x151 C:/Freescale_BM_USB_Stack_v5.0/Src/output/twrk70f120m.gcc_arm/debug/usbh/bm/usbh.a(usb_host_msd_queue.o)
 .debug_abbrev  0x00003202      0x208 C:/Freescale_BM_USB_Stack_v5.0/Src/output/twrk70f120m.gcc_arm/debug/usbh/bm/usbh.a(usb_host_phdc.o)

.debug_loc      0x00000000     0x7712
 .debug_loc     0x00000000       0xe0 C:/Freescale_BM_USB_Stack_v5.0/Src/example/host/hid/mouse/bm/make/host_hid_mouse_twrk70f120m/gcc_arm/MK70FN1M0_HOST_Flash_debug/obj/bmevent.o
 .debug_loc     0x000000e0       0x70 C:/Freescale_BM_USB_Stack_v5.0/Src/example/host/hid/mouse/bm/make/host_hid_mouse_twrk70f120m/gcc_arm/MK70FN1M0_HOST_Flash_debug/obj/bmisr.o
 .debug_loc     0x00000150       0xe0 C:/Freescale_BM_USB_Stack_v5.0/Src/example/host/hid/mouse/bm/make/host_hid_mouse_twrk70f120m/gcc_arm/MK70FN1M0_HOST_Flash_debug/obj/bmmsgq.o
 .debug_loc     0x00000230      0x118 C:/Freescale_BM_USB_Stack_v5.0/Src/example/host/hid/mouse/bm/make/host_hid_mouse_twrk70f120m/gcc_arm/MK70FN1M0_HOST_Flash_debug/obj/bmsem.o
 .debug_loc     0x00000348      0x226 C:/Freescale_BM_USB_Stack_v5.0/Src/example/host/hid/mouse/bm/make/host_hid_mouse_twrk70f120m/gcc_arm/MK70FN1M0_HOST_Flash_debug/obj/hidmouse.o
 .debug_loc     0x0000056e       0x38 C:/Freescale_BM_USB_Stack_v5.0/Src/example/host/hid/mouse/bm/make/host_hid_mouse_twrk70f120m/gcc_arm/MK70FN1M0_HOST_Flash_debug/obj/init_gpio.o
 .debug_loc     0x000005a6       0x2c C:/Freescale_BM_USB_Stack_v5.0/Src/example/host/hid/mouse/bm/make/host_hid_mouse_twrk70f120m/gcc_arm/MK70FN1M0_HOST_Flash_debug/obj/main_kinetis.o
 .debug_loc     0x000005d2       0xa8 C:/Freescale_BM_USB_Stack_v5.0/Src/example/host/hid/mouse/bm/make/host_hid_mouse_twrk70f120m/gcc_arm/MK70FN1M0_HOST_Flash_debug/obj/mem_util.o
 .debug_loc     0x0000067a      0x100 C:/Freescale_BM_USB_Stack_v5.0/Src/example/host/hid/mouse/bm/make/host_hid_mouse_twrk70f120m/gcc_arm/MK70FN1M0_HOST_Flash_debug/obj/nvic.o
 .debug_loc     0x0000077a       0xe0 C:/Freescale_BM_USB_Stack_v5.0/Src/example/host/hid/mouse/bm/make/host_hid_mouse_twrk70f120m/gcc_arm/MK70FN1M0_HOST_Flash_debug/obj/pit_delay.o
 .debug_loc     0x0000085a       0xe2 C:/Freescale_BM_USB_Stack_v5.0/Src/example/host/hid/mouse/bm/make/host_hid_mouse_twrk70f120m/gcc_arm/MK70FN1M0_HOST_Flash_debug/obj/poll.o
 .debug_loc     0x0000093c      0x1a2 C:/Freescale_BM_USB_Stack_v5.0/Src/example/host/hid/mouse/bm/make/host_hid_mouse_twrk70f120m/gcc_arm/MK70FN1M0_HOST_Flash_debug/obj/printf.o
 .debug_loc     0x00000ade      0x118 C:/Freescale_BM_USB_Stack_v5.0/Src/example/host/hid/mouse/bm/make/host_hid_mouse_twrk70f120m/gcc_arm/MK70FN1M0_HOST_Flash_debug/obj/rtc_kinetis.o
 .debug_loc     0x00000bf6      0x144 C:/Freescale_BM_USB_Stack_v5.0/Src/example/host/hid/mouse/bm/make/host_hid_mouse_twrk70f120m/gcc_arm/MK70FN1M0_HOST_Flash_debug/obj/sci.o
 .debug_loc     0x00000d3a       0xc8 C:/Freescale_BM_USB_Stack_v5.0/Src/example/host/hid/mouse/bm/make/host_hid_mouse_twrk70f120m/gcc_arm/MK70FN1M0_HOST_Flash_debug/obj/soc_init.o
 .debug_loc     0x00000e02      0x16c C:/Freescale_BM_USB_Stack_v5.0/Src/example/host/hid/mouse/bm/make/host_hid_mouse_twrk70f120m/gcc_arm/MK70FN1M0_HOST_Flash_debug/obj/soc_isr.o
 .debug_loc     0x00000f6e      0x188 C:/Freescale_BM_USB_Stack_v5.0/Src/example/host/hid/mouse/bm/make/host_hid_mouse_twrk70f120m/gcc_arm/MK70FN1M0_HOST_Flash_debug/obj/soc_pit.o
 .debug_loc     0x000010f6       0x70 C:/Freescale_BM_USB_Stack_v5.0/Src/example/host/hid/mouse/bm/make/host_hid_mouse_twrk70f120m/gcc_arm/MK70FN1M0_HOST_Flash_debug/obj/soc_sci.o
 .debug_loc     0x00001166       0x70 C:/Freescale_BM_USB_Stack_v5.0/Src/example/host/hid/mouse/bm/make/host_hid_mouse_twrk70f120m/gcc_arm/MK70FN1M0_HOST_Flash_debug/obj/soc_usb.o
 .debug_loc     0x000011d6       0x64 C:/Freescale_BM_USB_Stack_v5.0/Src/example/host/hid/mouse/bm/make/host_hid_mouse_twrk70f120m/gcc_arm/MK70FN1M0_HOST_Flash_debug/obj/startup.o
 .debug_loc     0x0000123a       0x58 C:/Freescale_BM_USB_Stack_v5.0/Src/example/host/hid/mouse/bm/make/host_hid_mouse_twrk70f120m/gcc_arm/MK70FN1M0_HOST_Flash_debug/obj/system_MK70FN1M012.o
 .debug_loc     0x00001292      0x4fc C:/Freescale_BM_USB_Stack_v5.0/Src/output/twrk70f120m.gcc_arm/debug/usbh/bm/usbh.a(adapter_bm.o)
 .debug_loc     0x0000178e      0x658 C:/Freescale_BM_USB_Stack_v5.0/Src/output/twrk70f120m.gcc_arm/debug/usbh/bm/usbh.a(usb_host.o)
 .debug_loc     0x00001de6       0x70 C:/Freescale_BM_USB_Stack_v5.0/Src/output/twrk70f120m.gcc_arm/debug/usbh/bm/usbh.a(usb_host_bsp.o)
 .debug_loc     0x00001e56      0x2da C:/Freescale_BM_USB_Stack_v5.0/Src/output/twrk70f120m.gcc_arm/debug/usbh/bm/usbh.a(usb_host_ch9.o)
 .debug_loc     0x00002130      0x118 C:/Freescale_BM_USB_Stack_v5.0/Src/output/twrk70f120m.gcc_arm/debug/usbh/bm/usbh.a(usb_host_common.o)
 .debug_loc     0x00002248      0x49c C:/Freescale_BM_USB_Stack_v5.0/Src/output/twrk70f120m.gcc_arm/debug/usbh/bm/usbh.a(usb_host_dev_mng.o)
 .debug_loc     0x000026e4      0x312 C:/Freescale_BM_USB_Stack_v5.0/Src/output/twrk70f120m.gcc_arm/debug/usbh/bm/usbh.a(usb_host_hid.o)
 .debug_loc     0x000029f6      0x236 C:/Freescale_BM_USB_Stack_v5.0/Src/output/twrk70f120m.gcc_arm/debug/usbh/bm/usbh.a(usb_host_hub_sm.o)
 .debug_loc     0x00002c2c     0x2c12 C:/Freescale_BM_USB_Stack_v5.0/Src/output/twrk70f120m.gcc_arm/debug/usbh/bm/usbh.a(ehci_host.o)
 .debug_loc     0x0000583e      0xc9a C:/Freescale_BM_USB_Stack_v5.0/Src/output/twrk70f120m.gcc_arm/debug/usbh/bm/usbh.a(khci.o)
 .debug_loc     0x000064d8      0x26a C:/Freescale_BM_USB_Stack_v5.0/Src/output/twrk70f120m.gcc_arm/debug/usbh/bm/usbh.a(usb_host_audio_intf.o)
 .debug_loc     0x00006742      0x4d8 C:/Freescale_BM_USB_Stack_v5.0/Src/output/twrk70f120m.gcc_arm/debug/usbh/bm/usbh.a(usb_host_cdc_intf.o)
 .debug_loc     0x00006c1a      0x312 C:/Freescale_BM_USB_Stack_v5.0/Src/output/twrk70f120m.gcc_arm/debug/usbh/bm/usbh.a(usb_host_hub.o)
 .debug_loc     0x00006f2c      0x3bc C:/Freescale_BM_USB_Stack_v5.0/Src/output/twrk70f120m.gcc_arm/debug/usbh/bm/usbh.a(usb_host_msd_bo.o)
 .debug_loc     0x000072e8      0x118 C:/Freescale_BM_USB_Stack_v5.0/Src/output/twrk70f120m.gcc_arm/debug/usbh/bm/usbh.a(usb_host_msd_queue.o)
 .debug_loc     0x00007400      0x312 C:/Freescale_BM_USB_Stack_v5.0/Src/output/twrk70f120m.gcc_arm/debug/usbh/bm/usbh.a(usb_host_phdc.o)

.debug_aranges  0x00000000     0x14c8
 .debug_aranges
                0x00000000       0x38 C:/Freescale_BM_USB_Stack_v5.0/Src/example/host/hid/mouse/bm/make/host_hid_mouse_twrk70f120m/gcc_arm/MK70FN1M0_HOST_Flash_debug/obj/bmevent.o
 .debug_aranges
                0x00000038       0x28 C:/Freescale_BM_USB_Stack_v5.0/Src/example/host/hid/mouse/bm/make/host_hid_mouse_twrk70f120m/gcc_arm/MK70FN1M0_HOST_Flash_debug/obj/bmisr.o
 .debug_aranges
                0x00000060       0x38 C:/Freescale_BM_USB_Stack_v5.0/Src/example/host/hid/mouse/bm/make/host_hid_mouse_twrk70f120m/gcc_arm/MK70FN1M0_HOST_Flash_debug/obj/bmmsgq.o
 .debug_aranges
                0x00000098       0x40 C:/Freescale_BM_USB_Stack_v5.0/Src/example/host/hid/mouse/bm/make/host_hid_mouse_twrk70f120m/gcc_arm/MK70FN1M0_HOST_Flash_debug/obj/bmsem.o
 .debug_aranges
                0x000000d8       0x68 C:/Freescale_BM_USB_Stack_v5.0/Src/example/host/hid/mouse/bm/make/host_hid_mouse_twrk70f120m/gcc_arm/MK70FN1M0_HOST_Flash_debug/obj/hidmouse.o
 .debug_aranges
                0x00000140       0x20 C:/Freescale_BM_USB_Stack_v5.0/Src/example/host/hid/mouse/bm/make/host_hid_mouse_twrk70f120m/gcc_arm/MK70FN1M0_HOST_Flash_debug/obj/init_gpio.o
 .debug_aranges
                0x00000160       0x20 C:/Freescale_BM_USB_Stack_v5.0/Src/example/host/hid/mouse/bm/make/host_hid_mouse_twrk70f120m/gcc_arm/MK70FN1M0_HOST_Flash_debug/obj/main_kinetis.o
 .debug_aranges
                0x00000180       0x30 C:/Freescale_BM_USB_Stack_v5.0/Src/example/host/hid/mouse/bm/make/host_hid_mouse_twrk70f120m/gcc_arm/MK70FN1M0_HOST_Flash_debug/obj/mem_util.o
 .debug_aranges
                0x000001b0       0x40 C:/Freescale_BM_USB_Stack_v5.0/Src/example/host/hid/mouse/bm/make/host_hid_mouse_twrk70f120m/gcc_arm/MK70FN1M0_HOST_Flash_debug/obj/nvic.o
 .debug_aranges
                0x000001f0       0x38 C:/Freescale_BM_USB_Stack_v5.0/Src/example/host/hid/mouse/bm/make/host_hid_mouse_twrk70f120m/gcc_arm/MK70FN1M0_HOST_Flash_debug/obj/pit_delay.o
 .debug_aranges
                0x00000228       0x38 C:/Freescale_BM_USB_Stack_v5.0/Src/example/host/hid/mouse/bm/make/host_hid_mouse_twrk70f120m/gcc_arm/MK70FN1M0_HOST_Flash_debug/obj/poll.o
 .debug_aranges
                0x00000260       0x50 C:/Freescale_BM_USB_Stack_v5.0/Src/example/host/hid/mouse/bm/make/host_hid_mouse_twrk70f120m/gcc_arm/MK70FN1M0_HOST_Flash_debug/obj/printf.o
 .debug_aranges
                0x000002b0       0x40 C:/Freescale_BM_USB_Stack_v5.0/Src/example/host/hid/mouse/bm/make/host_hid_mouse_twrk70f120m/gcc_arm/MK70FN1M0_HOST_Flash_debug/obj/rtc_kinetis.o
 .debug_aranges
                0x000002f0       0x48 C:/Freescale_BM_USB_Stack_v5.0/Src/example/host/hid/mouse/bm/make/host_hid_mouse_twrk70f120m/gcc_arm/MK70FN1M0_HOST_Flash_debug/obj/sci.o
 .debug_aranges
                0x00000338       0x38 C:/Freescale_BM_USB_Stack_v5.0/Src/example/host/hid/mouse/bm/make/host_hid_mouse_twrk70f120m/gcc_arm/MK70FN1M0_HOST_Flash_debug/obj/soc_init.o
 .debug_aranges
                0x00000370       0x58 C:/Freescale_BM_USB_Stack_v5.0/Src/example/host/hid/mouse/bm/make/host_hid_mouse_twrk70f120m/gcc_arm/MK70FN1M0_HOST_Flash_debug/obj/soc_isr.o
 .debug_aranges
                0x000003c8       0x50 C:/Freescale_BM_USB_Stack_v5.0/Src/example/host/hid/mouse/bm/make/host_hid_mouse_twrk70f120m/gcc_arm/MK70FN1M0_HOST_Flash_debug/obj/soc_pit.o
 .debug_aranges
                0x00000418       0x28 C:/Freescale_BM_USB_Stack_v5.0/Src/example/host/hid/mouse/bm/make/host_hid_mouse_twrk70f120m/gcc_arm/MK70FN1M0_HOST_Flash_debug/obj/soc_sci.o
 .debug_aranges
                0x00000440       0x28 C:/Freescale_BM_USB_Stack_v5.0/Src/example/host/hid/mouse/bm/make/host_hid_mouse_twrk70f120m/gcc_arm/MK70FN1M0_HOST_Flash_debug/obj/soc_usb.o
 .debug_aranges
                0x00000468       0x28 C:/Freescale_BM_USB_Stack_v5.0/Src/example/host/hid/mouse/bm/make/host_hid_mouse_twrk70f120m/gcc_arm/MK70FN1M0_HOST_Flash_debug/obj/startup.o
 .debug_aranges
                0x00000490       0x28 C:/Freescale_BM_USB_Stack_v5.0/Src/example/host/hid/mouse/bm/make/host_hid_mouse_twrk70f120m/gcc_arm/MK70FN1M0_HOST_Flash_debug/obj/startup_MK70FN1M012.o
 .debug_aranges
                0x000004b8       0x28 C:/Freescale_BM_USB_Stack_v5.0/Src/example/host/hid/mouse/bm/make/host_hid_mouse_twrk70f120m/gcc_arm/MK70FN1M0_HOST_Flash_debug/obj/system_MK70FN1M012.o
 .debug_aranges
                0x000004e0       0xd0 C:/Freescale_BM_USB_Stack_v5.0/Src/output/twrk70f120m.gcc_arm/debug/usbh/bm/usbh.a(adapter_bm.o)
 .debug_aranges
                0x000005b0      0x100 C:/Freescale_BM_USB_Stack_v5.0/Src/output/twrk70f120m.gcc_arm/debug/usbh/bm/usbh.a(usb_host.o)
 .debug_aranges
                0x000006b0       0x28 C:/Freescale_BM_USB_Stack_v5.0/Src/output/twrk70f120m.gcc_arm/debug/usbh/bm/usbh.a(usb_host_bsp.o)
 .debug_aranges
                0x000006d8       0x80 C:/Freescale_BM_USB_Stack_v5.0/Src/output/twrk70f120m.gcc_arm/debug/usbh/bm/usbh.a(usb_host_ch9.o)
 .debug_aranges
                0x00000758       0x40 C:/Freescale_BM_USB_Stack_v5.0/Src/output/twrk70f120m.gcc_arm/debug/usbh/bm/usbh.a(usb_host_common.o)
 .debug_aranges
                0x00000798       0xc0 C:/Freescale_BM_USB_Stack_v5.0/Src/output/twrk70f120m.gcc_arm/debug/usbh/bm/usbh.a(usb_host_dev_mng.o)
 .debug_aranges
                0x00000858       0x88 C:/Freescale_BM_USB_Stack_v5.0/Src/output/twrk70f120m.gcc_arm/debug/usbh/bm/usbh.a(usb_host_hid.o)
 .debug_aranges
                0x000008e0       0x68 C:/Freescale_BM_USB_Stack_v5.0/Src/output/twrk70f120m.gcc_arm/debug/usbh/bm/usbh.a(usb_host_hub_sm.o)
 .debug_aranges
                0x00000948      0x660 C:/Freescale_BM_USB_Stack_v5.0/Src/output/twrk70f120m.gcc_arm/debug/usbh/bm/usbh.a(ehci_host.o)
 .debug_aranges
                0x00000fa8      0x1e0 C:/Freescale_BM_USB_Stack_v5.0/Src/output/twrk70f120m.gcc_arm/debug/usbh/bm/usbh.a(khci.o)
 .debug_aranges
                0x00001188       0x18 C:/Freescale_BM_USB_Stack_v5.0/Src/output/twrk70f120m.gcc_arm/debug/usbh/bm/usbh.a(usb_classes.o)
 .debug_aranges
                0x000011a0       0x70 C:/Freescale_BM_USB_Stack_v5.0/Src/output/twrk70f120m.gcc_arm/debug/usbh/bm/usbh.a(usb_host_audio_intf.o)
 .debug_aranges
                0x00001210       0xc8 C:/Freescale_BM_USB_Stack_v5.0/Src/output/twrk70f120m.gcc_arm/debug/usbh/bm/usbh.a(usb_host_cdc_intf.o)
 .debug_aranges
                0x000012d8       0x88 C:/Freescale_BM_USB_Stack_v5.0/Src/output/twrk70f120m.gcc_arm/debug/usbh/bm/usbh.a(usb_host_hub.o)
 .debug_aranges
                0x00001360       0xa0 C:/Freescale_BM_USB_Stack_v5.0/Src/output/twrk70f120m.gcc_arm/debug/usbh/bm/usbh.a(usb_host_msd_bo.o)
 .debug_aranges
                0x00001400       0x40 C:/Freescale_BM_USB_Stack_v5.0/Src/output/twrk70f120m.gcc_arm/debug/usbh/bm/usbh.a(usb_host_msd_queue.o)
 .debug_aranges
                0x00001440       0x88 C:/Freescale_BM_USB_Stack_v5.0/Src/output/twrk70f120m.gcc_arm/debug/usbh/bm/usbh.a(usb_host_phdc.o)

.debug_line     0x00000000     0x91f4
 .debug_line    0x00000000      0x110 C:/Freescale_BM_USB_Stack_v5.0/Src/example/host/hid/mouse/bm/make/host_hid_mouse_twrk70f120m/gcc_arm/MK70FN1M0_HOST_Flash_debug/obj/bmevent.o
 .debug_line    0x00000110      0x1b3 C:/Freescale_BM_USB_Stack_v5.0/Src/example/host/hid/mouse/bm/make/host_hid_mouse_twrk70f120m/gcc_arm/MK70FN1M0_HOST_Flash_debug/obj/bmisr.o
 .debug_line    0x000002c3      0x207 C:/Freescale_BM_USB_Stack_v5.0/Src/example/host/hid/mouse/bm/make/host_hid_mouse_twrk70f120m/gcc_arm/MK70FN1M0_HOST_Flash_debug/obj/bmmsgq.o
 .debug_line    0x000004ca      0x11c C:/Freescale_BM_USB_Stack_v5.0/Src/example/host/hid/mouse/bm/make/host_hid_mouse_twrk70f120m/gcc_arm/MK70FN1M0_HOST_Flash_debug/obj/bmsem.o
 .debug_line    0x000005e6      0x3aa C:/Freescale_BM_USB_Stack_v5.0/Src/example/host/hid/mouse/bm/make/host_hid_mouse_twrk70f120m/gcc_arm/MK70FN1M0_HOST_Flash_debug/obj/hidmouse.o
 .debug_line    0x00000990      0x191 C:/Freescale_BM_USB_Stack_v5.0/Src/example/host/hid/mouse/bm/make/host_hid_mouse_twrk70f120m/gcc_arm/MK70FN1M0_HOST_Flash_debug/obj/init_gpio.o
 .debug_line    0x00000b21      0x17e C:/Freescale_BM_USB_Stack_v5.0/Src/example/host/hid/mouse/bm/make/host_hid_mouse_twrk70f120m/gcc_arm/MK70FN1M0_HOST_Flash_debug/obj/main_kinetis.o
 .debug_line    0x00000c9f      0x183 C:/Freescale_BM_USB_Stack_v5.0/Src/example/host/hid/mouse/bm/make/host_hid_mouse_twrk70f120m/gcc_arm/MK70FN1M0_HOST_Flash_debug/obj/mem_util.o
 .debug_line    0x00000e22      0x1d7 C:/Freescale_BM_USB_Stack_v5.0/Src/example/host/hid/mouse/bm/make/host_hid_mouse_twrk70f120m/gcc_arm/MK70FN1M0_HOST_Flash_debug/obj/nvic.o
 .debug_line    0x00000ff9      0x1c0 C:/Freescale_BM_USB_Stack_v5.0/Src/example/host/hid/mouse/bm/make/host_hid_mouse_twrk70f120m/gcc_arm/MK70FN1M0_HOST_Flash_debug/obj/pit_delay.o
 .debug_line    0x000011b9      0x12f C:/Freescale_BM_USB_Stack_v5.0/Src/example/host/hid/mouse/bm/make/host_hid_mouse_twrk70f120m/gcc_arm/MK70FN1M0_HOST_Flash_debug/obj/poll.o
 .debug_line    0x000012e8      0x2bc C:/Freescale_BM_USB_Stack_v5.0/Src/example/host/hid/mouse/bm/make/host_hid_mouse_twrk70f120m/gcc_arm/MK70FN1M0_HOST_Flash_debug/obj/printf.o
 .debug_line    0x000015a4      0x20a C:/Freescale_BM_USB_Stack_v5.0/Src/example/host/hid/mouse/bm/make/host_hid_mouse_twrk70f120m/gcc_arm/MK70FN1M0_HOST_Flash_debug/obj/rtc_kinetis.o
 .debug_line    0x000017ae      0x1ef C:/Freescale_BM_USB_Stack_v5.0/Src/example/host/hid/mouse/bm/make/host_hid_mouse_twrk70f120m/gcc_arm/MK70FN1M0_HOST_Flash_debug/obj/sci.o
 .debug_line    0x0000199d      0x319 C:/Freescale_BM_USB_Stack_v5.0/Src/example/host/hid/mouse/bm/make/host_hid_mouse_twrk70f120m/gcc_arm/MK70FN1M0_HOST_Flash_debug/obj/soc_init.o
 .debug_line    0x00001cb6      0x20d C:/Freescale_BM_USB_Stack_v5.0/Src/example/host/hid/mouse/bm/make/host_hid_mouse_twrk70f120m/gcc_arm/MK70FN1M0_HOST_Flash_debug/obj/soc_isr.o
 .debug_line    0x00001ec3      0x21c C:/Freescale_BM_USB_Stack_v5.0/Src/example/host/hid/mouse/bm/make/host_hid_mouse_twrk70f120m/gcc_arm/MK70FN1M0_HOST_Flash_debug/obj/soc_pit.o
 .debug_line    0x000020df      0x1b8 C:/Freescale_BM_USB_Stack_v5.0/Src/example/host/hid/mouse/bm/make/host_hid_mouse_twrk70f120m/gcc_arm/MK70FN1M0_HOST_Flash_debug/obj/soc_sci.o
 .debug_line    0x00002297      0x190 C:/Freescale_BM_USB_Stack_v5.0/Src/example/host/hid/mouse/bm/make/host_hid_mouse_twrk70f120m/gcc_arm/MK70FN1M0_HOST_Flash_debug/obj/soc_usb.o
 .debug_line    0x00002427      0x15c C:/Freescale_BM_USB_Stack_v5.0/Src/example/host/hid/mouse/bm/make/host_hid_mouse_twrk70f120m/gcc_arm/MK70FN1M0_HOST_Flash_debug/obj/startup.o
 .debug_line    0x00002583      0x122 C:/Freescale_BM_USB_Stack_v5.0/Src/example/host/hid/mouse/bm/make/host_hid_mouse_twrk70f120m/gcc_arm/MK70FN1M0_HOST_Flash_debug/obj/startup_MK70FN1M012.o
 .debug_line    0x000026a5      0x194 C:/Freescale_BM_USB_Stack_v5.0/Src/example/host/hid/mouse/bm/make/host_hid_mouse_twrk70f120m/gcc_arm/MK70FN1M0_HOST_Flash_debug/obj/system_MK70FN1M012.o
 .debug_line    0x00002839      0x3cc C:/Freescale_BM_USB_Stack_v5.0/Src/output/twrk70f120m.gcc_arm/debug/usbh/bm/usbh.a(adapter_bm.o)
 .debug_line    0x00002c05      0x6d1 C:/Freescale_BM_USB_Stack_v5.0/Src/output/twrk70f120m.gcc_arm/debug/usbh/bm/usbh.a(usb_host.o)
 .debug_line    0x000032d6      0x214 C:/Freescale_BM_USB_Stack_v5.0/Src/output/twrk70f120m.gcc_arm/debug/usbh/bm/usbh.a(usb_host_bsp.o)
 .debug_line    0x000034ea      0x4b2 C:/Freescale_BM_USB_Stack_v5.0/Src/output/twrk70f120m.gcc_arm/debug/usbh/bm/usbh.a(usb_host_ch9.o)
 .debug_line    0x0000399c      0x37b C:/Freescale_BM_USB_Stack_v5.0/Src/output/twrk70f120m.gcc_arm/debug/usbh/bm/usbh.a(usb_host_common.o)
 .debug_line    0x00003d17      0x5c8 C:/Freescale_BM_USB_Stack_v5.0/Src/output/twrk70f120m.gcc_arm/debug/usbh/bm/usbh.a(usb_host_dev_mng.o)
 .debug_line    0x000042df      0x36b C:/Freescale_BM_USB_Stack_v5.0/Src/output/twrk70f120m.gcc_arm/debug/usbh/bm/usbh.a(usb_host_hid.o)
 .debug_line    0x0000464a      0x584 C:/Freescale_BM_USB_Stack_v5.0/Src/output/twrk70f120m.gcc_arm/debug/usbh/bm/usbh.a(usb_host_hub_sm.o)
 .debug_line    0x00004bce     0x1c7a C:/Freescale_BM_USB_Stack_v5.0/Src/output/twrk70f120m.gcc_arm/debug/usbh/bm/usbh.a(ehci_host.o)
 .debug_line    0x00006848      0xb60 C:/Freescale_BM_USB_Stack_v5.0/Src/output/twrk70f120m.gcc_arm/debug/usbh/bm/usbh.a(khci.o)
 .debug_line    0x000073a8      0x1bb C:/Freescale_BM_USB_Stack_v5.0/Src/output/twrk70f120m.gcc_arm/debug/usbh/bm/usbh.a(usb_classes.o)
 .debug_line    0x00007563      0x3ac C:/Freescale_BM_USB_Stack_v5.0/Src/output/twrk70f120m.gcc_arm/debug/usbh/bm/usbh.a(usb_host_audio_intf.o)
 .debug_line    0x0000790f      0x5fa C:/Freescale_BM_USB_Stack_v5.0/Src/output/twrk70f120m.gcc_arm/debug/usbh/bm/usbh.a(usb_host_cdc_intf.o)
 .debug_line    0x00007f09      0x377 C:/Freescale_BM_USB_Stack_v5.0/Src/output/twrk70f120m.gcc_arm/debug/usbh/bm/usbh.a(usb_host_hub.o)
 .debug_line    0x00008280      0x68f C:/Freescale_BM_USB_Stack_v5.0/Src/output/twrk70f120m.gcc_arm/debug/usbh/bm/usbh.a(usb_host_msd_bo.o)
 .debug_line    0x0000890f      0x2ba C:/Freescale_BM_USB_Stack_v5.0/Src/output/twrk70f120m.gcc_arm/debug/usbh/bm/usbh.a(usb_host_msd_queue.o)
 .debug_line    0x00008bc9      0x62b C:/Freescale_BM_USB_Stack_v5.0/Src/output/twrk70f120m.gcc_arm/debug/usbh/bm/usbh.a(usb_host_phdc.o)

.debug_str      0x00000000     0xa47c
 .debug_str     0x00000000      0x16d C:/Freescale_BM_USB_Stack_v5.0/Src/example/host/hid/mouse/bm/make/host_hid_mouse_twrk70f120m/gcc_arm/MK70FN1M0_HOST_Flash_debug/obj/bmevent.o
                                0x1b1 (size before relaxing)
 .debug_str     0x0000016d      0x10a C:/Freescale_BM_USB_Stack_v5.0/Src/example/host/hid/mouse/bm/make/host_hid_mouse_twrk70f120m/gcc_arm/MK70FN1M0_HOST_Flash_debug/obj/bmisr.o
                                0x211 (size before relaxing)
 .debug_str     0x00000277      0x15c C:/Freescale_BM_USB_Stack_v5.0/Src/example/host/hid/mouse/bm/make/host_hid_mouse_twrk70f120m/gcc_arm/MK70FN1M0_HOST_Flash_debug/obj/bmmsgq.o
                                0x301 (size before relaxing)
 .debug_str     0x000003d3       0xab C:/Freescale_BM_USB_Stack_v5.0/Src/example/host/hid/mouse/bm/make/host_hid_mouse_twrk70f120m/gcc_arm/MK70FN1M0_HOST_Flash_debug/obj/bmsem.o
                                0x1aa (size before relaxing)
 .debug_str     0x0000047e      0x866 C:/Freescale_BM_USB_Stack_v5.0/Src/example/host/hid/mouse/bm/make/host_hid_mouse_twrk70f120m/gcc_arm/MK70FN1M0_HOST_Flash_debug/obj/hidmouse.o
                                0xad4 (size before relaxing)
 .debug_str     0x00000ce4      0x1d3 C:/Freescale_BM_USB_Stack_v5.0/Src/example/host/hid/mouse/bm/make/host_hid_mouse_twrk70f120m/gcc_arm/MK70FN1M0_HOST_Flash_debug/obj/init_gpio.o
                                0x357 (size before relaxing)
 .debug_str     0x00000eb7       0x57 C:/Freescale_BM_USB_Stack_v5.0/Src/example/host/hid/mouse/bm/make/host_hid_mouse_twrk70f120m/gcc_arm/MK70FN1M0_HOST_Flash_debug/obj/main_kinetis.o
                                0x1e0 (size before relaxing)
 .debug_str     0x00000f0e       0x6c C:/Freescale_BM_USB_Stack_v5.0/Src/example/host/hid/mouse/bm/make/host_hid_mouse_twrk70f120m/gcc_arm/MK70FN1M0_HOST_Flash_debug/obj/mem_util.o
                                0x1f4 (size before relaxing)
 .debug_str     0x00000f7a       0xe0 C:/Freescale_BM_USB_Stack_v5.0/Src/example/host/hid/mouse/bm/make/host_hid_mouse_twrk70f120m/gcc_arm/MK70FN1M0_HOST_Flash_debug/obj/nvic.o
                                0x291 (size before relaxing)
 .debug_str     0x0000105a       0x79 C:/Freescale_BM_USB_Stack_v5.0/Src/example/host/hid/mouse/bm/make/host_hid_mouse_twrk70f120m/gcc_arm/MK70FN1M0_HOST_Flash_debug/obj/pit_delay.o
                                0x218 (size before relaxing)
 .debug_str     0x000010d3       0xb0 C:/Freescale_BM_USB_Stack_v5.0/Src/example/host/hid/mouse/bm/make/host_hid_mouse_twrk70f120m/gcc_arm/MK70FN1M0_HOST_Flash_debug/obj/poll.o
                                0x19f (size before relaxing)
 .debug_str     0x00001183      0x19f C:/Freescale_BM_USB_Stack_v5.0/Src/example/host/hid/mouse/bm/make/host_hid_mouse_twrk70f120m/gcc_arm/MK70FN1M0_HOST_Flash_debug/obj/printf.o
                                0x2d4 (size before relaxing)
 .debug_str     0x00001322      0x12e C:/Freescale_BM_USB_Stack_v5.0/Src/example/host/hid/mouse/bm/make/host_hid_mouse_twrk70f120m/gcc_arm/MK70FN1M0_HOST_Flash_debug/obj/rtc_kinetis.o
                                0x2cd (size before relaxing)
 .debug_str     0x00001450      0x183 C:/Freescale_BM_USB_Stack_v5.0/Src/example/host/hid/mouse/bm/make/host_hid_mouse_twrk70f120m/gcc_arm/MK70FN1M0_HOST_Flash_debug/obj/sci.o
                                0x335 (size before relaxing)
 .debug_str     0x000015d3      0x53d C:/Freescale_BM_USB_Stack_v5.0/Src/example/host/hid/mouse/bm/make/host_hid_mouse_twrk70f120m/gcc_arm/MK70FN1M0_HOST_Flash_debug/obj/soc_init.o
                                0x7e3 (size before relaxing)
 .debug_str     0x00001b10      0x773 C:/Freescale_BM_USB_Stack_v5.0/Src/example/host/hid/mouse/bm/make/host_hid_mouse_twrk70f120m/gcc_arm/MK70FN1M0_HOST_Flash_debug/obj/soc_isr.o
                                0x92c (size before relaxing)
 .debug_str     0x00002283      0x262 C:/Freescale_BM_USB_Stack_v5.0/Src/example/host/hid/mouse/bm/make/host_hid_mouse_twrk70f120m/gcc_arm/MK70FN1M0_HOST_Flash_debug/obj/soc_pit.o
                                0xaaa (size before relaxing)
 .debug_str     0x000024e5      0x118 C:/Freescale_BM_USB_Stack_v5.0/Src/example/host/hid/mouse/bm/make/host_hid_mouse_twrk70f120m/gcc_arm/MK70FN1M0_HOST_Flash_debug/obj/soc_sci.o
                                0x9cf (size before relaxing)
 .debug_str     0x000025fd       0x87 C:/Freescale_BM_USB_Stack_v5.0/Src/example/host/hid/mouse/bm/make/host_hid_mouse_twrk70f120m/gcc_arm/MK70FN1M0_HOST_Flash_debug/obj/soc_usb.o
                                0x863 (size before relaxing)
 .debug_str     0x00002684      0x15e C:/Freescale_BM_USB_Stack_v5.0/Src/example/host/hid/mouse/bm/make/host_hid_mouse_twrk70f120m/gcc_arm/MK70FN1M0_HOST_Flash_debug/obj/startup.o
                                0x269 (size before relaxing)
 .debug_str     0x000027e2       0xd8 C:/Freescale_BM_USB_Stack_v5.0/Src/example/host/hid/mouse/bm/make/host_hid_mouse_twrk70f120m/gcc_arm/MK70FN1M0_HOST_Flash_debug/obj/system_MK70FN1M012.o
                                0x25d (size before relaxing)
 .debug_str     0x000028ba      0x26c C:/Freescale_BM_USB_Stack_v5.0/Src/output/twrk70f120m.gcc_arm/debug/usbh/bm/usbh.a(adapter_bm.o)
                                0x567 (size before relaxing)
 .debug_str     0x00002b26      0xe63 C:/Freescale_BM_USB_Stack_v5.0/Src/output/twrk70f120m.gcc_arm/debug/usbh/bm/usbh.a(usb_host.o)
                               0x1645 (size before relaxing)
 .debug_str     0x00003989      0x266 C:/Freescale_BM_USB_Stack_v5.0/Src/output/twrk70f120m.gcc_arm/debug/usbh/bm/usbh.a(usb_host_bsp.o)
                                0x73f (size before relaxing)
 .debug_str     0x00003bef      0x22c C:/Freescale_BM_USB_Stack_v5.0/Src/output/twrk70f120m.gcc_arm/debug/usbh/bm/usbh.a(usb_host_ch9.o)
                               0x1516 (size before relaxing)
 .debug_str     0x00003e1b      0x170 C:/Freescale_BM_USB_Stack_v5.0/Src/output/twrk70f120m.gcc_arm/debug/usbh/bm/usbh.a(usb_host_common.o)
                               0x1319 (size before relaxing)
 .debug_str     0x00003f8b      0x354 C:/Freescale_BM_USB_Stack_v5.0/Src/output/twrk70f120m.gcc_arm/debug/usbh/bm/usbh.a(usb_host_dev_mng.o)
                               0x165c (size before relaxing)
 .debug_str     0x000042df      0x238 C:/Freescale_BM_USB_Stack_v5.0/Src/output/twrk70f120m.gcc_arm/debug/usbh/bm/usbh.a(usb_host_hid.o)
                                0x8da (size before relaxing)
 .debug_str     0x00004517      0x215 C:/Freescale_BM_USB_Stack_v5.0/Src/output/twrk70f120m.gcc_arm/debug/usbh/bm/usbh.a(usb_host_hub_sm.o)
                               0x1466 (size before relaxing)
 .debug_str     0x0000472c     0x28c0 C:/Freescale_BM_USB_Stack_v5.0/Src/output/twrk70f120m.gcc_arm/debug/usbh/bm/usbh.a(ehci_host.o)
                               0x32d0 (size before relaxing)
 .debug_str     0x00006fec     0x1461 C:/Freescale_BM_USB_Stack_v5.0/Src/output/twrk70f120m.gcc_arm/debug/usbh/bm/usbh.a(khci.o)
                               0x1c60 (size before relaxing)
 .debug_str     0x0000844d       0x56 C:/Freescale_BM_USB_Stack_v5.0/Src/output/twrk70f120m.gcc_arm/debug/usbh/bm/usbh.a(usb_classes.o)
                                0x30a (size before relaxing)
 .debug_str     0x000084a3      0x5d4 C:/Freescale_BM_USB_Stack_v5.0/Src/output/twrk70f120m.gcc_arm/debug/usbh/bm/usbh.a(usb_host_audio_intf.o)
                                0xb53 (size before relaxing)
 .debug_str     0x00008a77      0x774 C:/Freescale_BM_USB_Stack_v5.0/Src/output/twrk70f120m.gcc_arm/debug/usbh/bm/usbh.a(usb_host_cdc_intf.o)
                               0x1853 (size before relaxing)
 .debug_str     0x000091eb      0x208 C:/Freescale_BM_USB_Stack_v5.0/Src/output/twrk70f120m.gcc_arm/debug/usbh/bm/usbh.a(usb_host_hub.o)
                                0x8c1 (size before relaxing)
 .debug_str     0x000093f3      0x752 C:/Freescale_BM_USB_Stack_v5.0/Src/output/twrk70f120m.gcc_arm/debug/usbh/bm/usbh.a(usb_host_msd_bo.o)
                               0x174b (size before relaxing)
 .debug_str     0x00009b45       0xf8 C:/Freescale_BM_USB_Stack_v5.0/Src/output/twrk70f120m.gcc_arm/debug/usbh/bm/usbh.a(usb_host_msd_queue.o)
                                0x835 (size before relaxing)
 .debug_str     0x00009c3d      0x83f C:/Freescale_BM_USB_Stack_v5.0/Src/output/twrk70f120m.gcc_arm/debug/usbh/bm/usbh.a(usb_host_phdc.o)
                               0x196c (size before relaxing)

.comment        0x00000000       0x79
 .comment       0x00000000       0x79 C:/Freescale_BM_USB_Stack_v5.0/Src/example/host/hid/mouse/bm/make/host_hid_mouse_twrk70f120m/gcc_arm/MK70FN1M0_HOST_Flash_debug/obj/bmevent.o
                                 0x7a (size before relaxing)
 .comment       0x00000000       0x7a C:/Freescale_BM_USB_Stack_v5.0/Src/example/host/hid/mouse/bm/make/host_hid_mouse_twrk70f120m/gcc_arm/MK70FN1M0_HOST_Flash_debug/obj/bmisr.o
 .comment       0x00000000       0x7a C:/Freescale_BM_USB_Stack_v5.0/Src/example/host/hid/mouse/bm/make/host_hid_mouse_twrk70f120m/gcc_arm/MK70FN1M0_HOST_Flash_debug/obj/bmmsgq.o
 .comment       0x00000000       0x7a C:/Freescale_BM_USB_Stack_v5.0/Src/example/host/hid/mouse/bm/make/host_hid_mouse_twrk70f120m/gcc_arm/MK70FN1M0_HOST_Flash_debug/obj/bmsem.o
 .comment       0x00000000       0x7a C:/Freescale_BM_USB_Stack_v5.0/Src/example/host/hid/mouse/bm/make/host_hid_mouse_twrk70f120m/gcc_arm/MK70FN1M0_HOST_Flash_debug/obj/hidmouse.o
 .comment       0x00000000       0x7a C:/Freescale_BM_USB_Stack_v5.0/Src/example/host/hid/mouse/bm/make/host_hid_mouse_twrk70f120m/gcc_arm/MK70FN1M0_HOST_Flash_debug/obj/init_gpio.o
 .comment       0x00000000       0x7a C:/Freescale_BM_USB_Stack_v5.0/Src/example/host/hid/mouse/bm/make/host_hid_mouse_twrk70f120m/gcc_arm/MK70FN1M0_HOST_Flash_debug/obj/main_kinetis.o
 .comment       0x00000000       0x7a C:/Freescale_BM_USB_Stack_v5.0/Src/example/host/hid/mouse/bm/make/host_hid_mouse_twrk70f120m/gcc_arm/MK70FN1M0_HOST_Flash_debug/obj/mem_util.o
 .comment       0x00000000       0x7a C:/Freescale_BM_USB_Stack_v5.0/Src/example/host/hid/mouse/bm/make/host_hid_mouse_twrk70f120m/gcc_arm/MK70FN1M0_HOST_Flash_debug/obj/nvic.o
 .comment       0x00000000       0x7a C:/Freescale_BM_USB_Stack_v5.0/Src/example/host/hid/mouse/bm/make/host_hid_mouse_twrk70f120m/gcc_arm/MK70FN1M0_HOST_Flash_debug/obj/pit_delay.o
 .comment       0x00000000       0x7a C:/Freescale_BM_USB_Stack_v5.0/Src/example/host/hid/mouse/bm/make/host_hid_mouse_twrk70f120m/gcc_arm/MK70FN1M0_HOST_Flash_debug/obj/poll.o
 .comment       0x00000000       0x7a C:/Freescale_BM_USB_Stack_v5.0/Src/example/host/hid/mouse/bm/make/host_hid_mouse_twrk70f120m/gcc_arm/MK70FN1M0_HOST_Flash_debug/obj/printf.o
 .comment       0x00000000       0x7a C:/Freescale_BM_USB_Stack_v5.0/Src/example/host/hid/mouse/bm/make/host_hid_mouse_twrk70f120m/gcc_arm/MK70FN1M0_HOST_Flash_debug/obj/rtc_kinetis.o
 .comment       0x00000000       0x7a C:/Freescale_BM_USB_Stack_v5.0/Src/example/host/hid/mouse/bm/make/host_hid_mouse_twrk70f120m/gcc_arm/MK70FN1M0_HOST_Flash_debug/obj/sci.o
 .comment       0x00000000       0x7a C:/Freescale_BM_USB_Stack_v5.0/Src/example/host/hid/mouse/bm/make/host_hid_mouse_twrk70f120m/gcc_arm/MK70FN1M0_HOST_Flash_debug/obj/soc_init.o
 .comment       0x00000000       0x7a C:/Freescale_BM_USB_Stack_v5.0/Src/example/host/hid/mouse/bm/make/host_hid_mouse_twrk70f120m/gcc_arm/MK70FN1M0_HOST_Flash_debug/obj/soc_isr.o
 .comment       0x00000000       0x7a C:/Freescale_BM_USB_Stack_v5.0/Src/example/host/hid/mouse/bm/make/host_hid_mouse_twrk70f120m/gcc_arm/MK70FN1M0_HOST_Flash_debug/obj/soc_pit.o
 .comment       0x00000000       0x7a C:/Freescale_BM_USB_Stack_v5.0/Src/example/host/hid/mouse/bm/make/host_hid_mouse_twrk70f120m/gcc_arm/MK70FN1M0_HOST_Flash_debug/obj/soc_sci.o
 .comment       0x00000000       0x7a C:/Freescale_BM_USB_Stack_v5.0/Src/example/host/hid/mouse/bm/make/host_hid_mouse_twrk70f120m/gcc_arm/MK70FN1M0_HOST_Flash_debug/obj/soc_usb.o
 .comment       0x00000000       0x7a C:/Freescale_BM_USB_Stack_v5.0/Src/example/host/hid/mouse/bm/make/host_hid_mouse_twrk70f120m/gcc_arm/MK70FN1M0_HOST_Flash_debug/obj/startup.o
 .comment       0x00000000       0x7a C:/Freescale_BM_USB_Stack_v5.0/Src/example/host/hid/mouse/bm/make/host_hid_mouse_twrk70f120m/gcc_arm/MK70FN1M0_HOST_Flash_debug/obj/system_MK70FN1M012.o
 .comment       0x00000000       0x7a C:/Freescale_BM_USB_Stack_v5.0/Src/output/twrk70f120m.gcc_arm/debug/usbh/bm/usbh.a(adapter_bm.o)
 .comment       0x00000000       0x7a C:/Freescale_BM_USB_Stack_v5.0/Src/output/twrk70f120m.gcc_arm/debug/usbh/bm/usbh.a(usb_host.o)
 .comment       0x00000000       0x7a C:/Freescale_BM_USB_Stack_v5.0/Src/output/twrk70f120m.gcc_arm/debug/usbh/bm/usbh.a(usb_host_bsp.o)
 .comment       0x00000000       0x7a C:/Freescale_BM_USB_Stack_v5.0/Src/output/twrk70f120m.gcc_arm/debug/usbh/bm/usbh.a(usb_host_ch9.o)
 .comment       0x00000000       0x7a C:/Freescale_BM_USB_Stack_v5.0/Src/output/twrk70f120m.gcc_arm/debug/usbh/bm/usbh.a(usb_host_common.o)
 .comment       0x00000000       0x7a C:/Freescale_BM_USB_Stack_v5.0/Src/output/twrk70f120m.gcc_arm/debug/usbh/bm/usbh.a(usb_host_dev_mng.o)
 .comment       0x00000000       0x7a C:/Freescale_BM_USB_Stack_v5.0/Src/output/twrk70f120m.gcc_arm/debug/usbh/bm/usbh.a(usb_host_hid.o)
 .comment       0x00000000       0x7a C:/Freescale_BM_USB_Stack_v5.0/Src/output/twrk70f120m.gcc_arm/debug/usbh/bm/usbh.a(usb_host_hub_sm.o)
 .comment       0x00000000       0x7a C:/Freescale_BM_USB_Stack_v5.0/Src/output/twrk70f120m.gcc_arm/debug/usbh/bm/usbh.a(ehci_host.o)
 .comment       0x00000000       0x7a C:/Freescale_BM_USB_Stack_v5.0/Src/output/twrk70f120m.gcc_arm/debug/usbh/bm/usbh.a(khci.o)
 .comment       0x00000000       0x7a C:/Freescale_BM_USB_Stack_v5.0/Src/output/twrk70f120m.gcc_arm/debug/usbh/bm/usbh.a(usb_classes.o)
 .comment       0x00000000       0x7a C:/Freescale_BM_USB_Stack_v5.0/Src/output/twrk70f120m.gcc_arm/debug/usbh/bm/usbh.a(usb_host_audio_intf.o)
 .comment       0x00000000       0x7a C:/Freescale_BM_USB_Stack_v5.0/Src/output/twrk70f120m.gcc_arm/debug/usbh/bm/usbh.a(usb_host_cdc_intf.o)
 .comment       0x00000000       0x7a C:/Freescale_BM_USB_Stack_v5.0/Src/output/twrk70f120m.gcc_arm/debug/usbh/bm/usbh.a(usb_host_hub.o)
 .comment       0x00000000       0x7a C:/Freescale_BM_USB_Stack_v5.0/Src/output/twrk70f120m.gcc_arm/debug/usbh/bm/usbh.a(usb_host_msd_bo.o)
 .comment       0x00000000       0x7a C:/Freescale_BM_USB_Stack_v5.0/Src/output/twrk70f120m.gcc_arm/debug/usbh/bm/usbh.a(usb_host_msd_queue.o)
 .comment       0x00000000       0x7a C:/Freescale_BM_USB_Stack_v5.0/Src/output/twrk70f120m.gcc_arm/debug/usbh/bm/usbh.a(usb_host_phdc.o)

.ARM.attributes
                0x00000000       0x37
 .ARM.attributes
                0x00000000       0x39 C:/Freescale_BM_USB_Stack_v5.0/Src/example/host/hid/mouse/bm/make/host_hid_mouse_twrk70f120m/gcc_arm/MK70FN1M0_HOST_Flash_debug/obj/bmevent.o
 .ARM.attributes
                0x00000039       0x39 C:/Freescale_BM_USB_Stack_v5.0/Src/example/host/hid/mouse/bm/make/host_hid_mouse_twrk70f120m/gcc_arm/MK70FN1M0_HOST_Flash_debug/obj/bmisr.o
 .ARM.attributes
                0x00000072       0x39 C:/Freescale_BM_USB_Stack_v5.0/Src/example/host/hid/mouse/bm/make/host_hid_mouse_twrk70f120m/gcc_arm/MK70FN1M0_HOST_Flash_debug/obj/bmmsgq.o
 .ARM.attributes
                0x000000ab       0x39 C:/Freescale_BM_USB_Stack_v5.0/Src/example/host/hid/mouse/bm/make/host_hid_mouse_twrk70f120m/gcc_arm/MK70FN1M0_HOST_Flash_debug/obj/bmsem.o
 .ARM.attributes
                0x000000e4       0x39 C:/Freescale_BM_USB_Stack_v5.0/Src/example/host/hid/mouse/bm/make/host_hid_mouse_twrk70f120m/gcc_arm/MK70FN1M0_HOST_Flash_debug/obj/hidmouse.o
 .ARM.attributes
                0x0000011d       0x39 C:/Freescale_BM_USB_Stack_v5.0/Src/example/host/hid/mouse/bm/make/host_hid_mouse_twrk70f120m/gcc_arm/MK70FN1M0_HOST_Flash_debug/obj/init_gpio.o
 .ARM.attributes
                0x00000156       0x39 C:/Freescale_BM_USB_Stack_v5.0/Src/example/host/hid/mouse/bm/make/host_hid_mouse_twrk70f120m/gcc_arm/MK70FN1M0_HOST_Flash_debug/obj/main_kinetis.o
 .ARM.attributes
                0x0000018f       0x39 C:/Freescale_BM_USB_Stack_v5.0/Src/example/host/hid/mouse/bm/make/host_hid_mouse_twrk70f120m/gcc_arm/MK70FN1M0_HOST_Flash_debug/obj/mem_util.o
 .ARM.attributes
                0x000001c8       0x39 C:/Freescale_BM_USB_Stack_v5.0/Src/example/host/hid/mouse/bm/make/host_hid_mouse_twrk70f120m/gcc_arm/MK70FN1M0_HOST_Flash_debug/obj/nvic.o
 .ARM.attributes
                0x00000201       0x39 C:/Freescale_BM_USB_Stack_v5.0/Src/example/host/hid/mouse/bm/make/host_hid_mouse_twrk70f120m/gcc_arm/MK70FN1M0_HOST_Flash_debug/obj/pit_delay.o
 .ARM.attributes
                0x0000023a       0x39 C:/Freescale_BM_USB_Stack_v5.0/Src/example/host/hid/mouse/bm/make/host_hid_mouse_twrk70f120m/gcc_arm/MK70FN1M0_HOST_Flash_debug/obj/poll.o
 .ARM.attributes
                0x00000273       0x39 C:/Freescale_BM_USB_Stack_v5.0/Src/example/host/hid/mouse/bm/make/host_hid_mouse_twrk70f120m/gcc_arm/MK70FN1M0_HOST_Flash_debug/obj/printf.o
 .ARM.attributes
                0x000002ac       0x39 C:/Freescale_BM_USB_Stack_v5.0/Src/example/host/hid/mouse/bm/make/host_hid_mouse_twrk70f120m/gcc_arm/MK70FN1M0_HOST_Flash_debug/obj/rtc_kinetis.o
 .ARM.attributes
                0x000002e5       0x39 C:/Freescale_BM_USB_Stack_v5.0/Src/example/host/hid/mouse/bm/make/host_hid_mouse_twrk70f120m/gcc_arm/MK70FN1M0_HOST_Flash_debug/obj/sci.o
 .ARM.attributes
                0x0000031e       0x39 C:/Freescale_BM_USB_Stack_v5.0/Src/example/host/hid/mouse/bm/make/host_hid_mouse_twrk70f120m/gcc_arm/MK70FN1M0_HOST_Flash_debug/obj/soc_init.o
 .ARM.attributes
                0x00000357       0x39 C:/Freescale_BM_USB_Stack_v5.0/Src/example/host/hid/mouse/bm/make/host_hid_mouse_twrk70f120m/gcc_arm/MK70FN1M0_HOST_Flash_debug/obj/soc_isr.o
 .ARM.attributes
                0x00000390       0x39 C:/Freescale_BM_USB_Stack_v5.0/Src/example/host/hid/mouse/bm/make/host_hid_mouse_twrk70f120m/gcc_arm/MK70FN1M0_HOST_Flash_debug/obj/soc_pit.o
 .ARM.attributes
                0x000003c9       0x39 C:/Freescale_BM_USB_Stack_v5.0/Src/example/host/hid/mouse/bm/make/host_hid_mouse_twrk70f120m/gcc_arm/MK70FN1M0_HOST_Flash_debug/obj/soc_sci.o
 .ARM.attributes
                0x00000402       0x39 C:/Freescale_BM_USB_Stack_v5.0/Src/example/host/hid/mouse/bm/make/host_hid_mouse_twrk70f120m/gcc_arm/MK70FN1M0_HOST_Flash_debug/obj/soc_usb.o
 .ARM.attributes
                0x0000043b       0x39 C:/Freescale_BM_USB_Stack_v5.0/Src/example/host/hid/mouse/bm/make/host_hid_mouse_twrk70f120m/gcc_arm/MK70FN1M0_HOST_Flash_debug/obj/startup.o
 .ARM.attributes
                0x00000474       0x21 C:/Freescale_BM_USB_Stack_v5.0/Src/example/host/hid/mouse/bm/make/host_hid_mouse_twrk70f120m/gcc_arm/MK70FN1M0_HOST_Flash_debug/obj/startup_MK70FN1M012.o
 .ARM.attributes
                0x00000495       0x39 C:/Freescale_BM_USB_Stack_v5.0/Src/example/host/hid/mouse/bm/make/host_hid_mouse_twrk70f120m/gcc_arm/MK70FN1M0_HOST_Flash_debug/obj/system_MK70FN1M012.o
 .ARM.attributes
                0x000004ce       0x39 C:/Freescale_BM_USB_Stack_v5.0/Src/output/twrk70f120m.gcc_arm/debug/usbh/bm/usbh.a(adapter_bm.o)
 .ARM.attributes
                0x00000507       0x39 C:/Freescale_BM_USB_Stack_v5.0/Src/output/twrk70f120m.gcc_arm/debug/usbh/bm/usbh.a(usb_host.o)
 .ARM.attributes
                0x00000540       0x39 C:/Freescale_BM_USB_Stack_v5.0/Src/output/twrk70f120m.gcc_arm/debug/usbh/bm/usbh.a(usb_host_bsp.o)
 .ARM.attributes
                0x00000579       0x39 C:/Freescale_BM_USB_Stack_v5.0/Src/output/twrk70f120m.gcc_arm/debug/usbh/bm/usbh.a(usb_host_ch9.o)
 .ARM.attributes
                0x000005b2       0x39 C:/Freescale_BM_USB_Stack_v5.0/Src/output/twrk70f120m.gcc_arm/debug/usbh/bm/usbh.a(usb_host_common.o)
 .ARM.attributes
                0x000005eb       0x39 C:/Freescale_BM_USB_Stack_v5.0/Src/output/twrk70f120m.gcc_arm/debug/usbh/bm/usbh.a(usb_host_dev_mng.o)
 .ARM.attributes
                0x00000624       0x39 C:/Freescale_BM_USB_Stack_v5.0/Src/output/twrk70f120m.gcc_arm/debug/usbh/bm/usbh.a(usb_host_hid.o)
 .ARM.attributes
                0x0000065d       0x39 C:/Freescale_BM_USB_Stack_v5.0/Src/output/twrk70f120m.gcc_arm/debug/usbh/bm/usbh.a(usb_host_hub_sm.o)
 .ARM.attributes
                0x00000696       0x39 C:/Freescale_BM_USB_Stack_v5.0/Src/output/twrk70f120m.gcc_arm/debug/usbh/bm/usbh.a(ehci_host.o)
 .ARM.attributes
                0x000006cf       0x39 C:/Freescale_BM_USB_Stack_v5.0/Src/output/twrk70f120m.gcc_arm/debug/usbh/bm/usbh.a(khci.o)
 .ARM.attributes
                0x00000708       0x39 C:/Freescale_BM_USB_Stack_v5.0/Src/output/twrk70f120m.gcc_arm/debug/usbh/bm/usbh.a(usb_classes.o)
 .ARM.attributes
                0x00000741       0x39 C:/Freescale_BM_USB_Stack_v5.0/Src/output/twrk70f120m.gcc_arm/debug/usbh/bm/usbh.a(usb_host_audio_intf.o)
 .ARM.attributes
                0x0000077a       0x39 C:/Freescale_BM_USB_Stack_v5.0/Src/output/twrk70f120m.gcc_arm/debug/usbh/bm/usbh.a(usb_host_cdc_intf.o)
 .ARM.attributes
                0x000007b3       0x39 C:/Freescale_BM_USB_Stack_v5.0/Src/output/twrk70f120m.gcc_arm/debug/usbh/bm/usbh.a(usb_host_hub.o)
 .ARM.attributes
                0x000007ec       0x39 C:/Freescale_BM_USB_Stack_v5.0/Src/output/twrk70f120m.gcc_arm/debug/usbh/bm/usbh.a(usb_host_msd_bo.o)
 .ARM.attributes
                0x00000825       0x39 C:/Freescale_BM_USB_Stack_v5.0/Src/output/twrk70f120m.gcc_arm/debug/usbh/bm/usbh.a(usb_host_msd_queue.o)
 .ARM.attributes
                0x0000085e       0x39 C:/Freescale_BM_USB_Stack_v5.0/Src/output/twrk70f120m.gcc_arm/debug/usbh/bm/usbh.a(usb_host_phdc.o)
 .ARM.attributes
                0x00000897       0x34 C:/FREESC~1/CWMCUV~1.7/CROSS_~1/ARM-NO~1/arm-none-eabi/lib/armv7e-m/softfp/libc.a(lib_a-malloc.o)
 .ARM.attributes
                0x000008cb       0x34 C:/FREESC~1/CWMCUV~1.7/CROSS_~1/ARM-NO~1/arm-none-eabi/lib/armv7e-m/softfp/libc.a(lib_a-mallocr.o)
 .ARM.attributes
                0x000008ff       0x34 C:/FREESC~1/CWMCUV~1.7/CROSS_~1/ARM-NO~1/arm-none-eabi/lib/armv7e-m/softfp/libc.a(lib_a-memcpy.o)
 .ARM.attributes
                0x00000933       0x34 C:/FREESC~1/CWMCUV~1.7/CROSS_~1/ARM-NO~1/arm-none-eabi/lib/armv7e-m/softfp/libc.a(lib_a-memset.o)
 .ARM.attributes
                0x00000967       0x34 C:/FREESC~1/CWMCUV~1.7/CROSS_~1/ARM-NO~1/arm-none-eabi/lib/armv7e-m/softfp/libc.a(lib_a-mlock.o)
 .ARM.attributes
                0x0000099b       0x34 C:/FREESC~1/CWMCUV~1.7/CROSS_~1/ARM-NO~1/arm-none-eabi/lib/armv7e-m/softfp/libc.a(lib_a-sbrkr.o)
 .ARM.attributes
                0x000009cf       0x34 C:/FREESC~1/CWMCUV~1.7/CROSS_~1/ARM-NO~1/arm-none-eabi/lib/armv7e-m/softfp/libc.a(lib_a-strlen.o)
 .ARM.attributes
                0x00000a03       0x34 C:/FREESC~1/CWMCUV~1.7/CROSS_~1/ARM-NO~1/arm-none-eabi/lib/armv7e-m/softfp/libc.a(lib_a-freer.o)
 .ARM.attributes
                0x00000a37       0x34 C:/FREESC~1/CWMCUV~1.7/CROSS_~1/ARM-NO~1/arm-none-eabi/lib/armv7e-m/softfp/libc.a(lib_a-impure.o)
 .ARM.attributes
                0x00000a6b       0x34 C:/FREESC~1/CWMCUV~1.7/CROSS_~1/ARM-NO~1/arm-none-eabi/lib/armv7e-m/softfp/libc.a(lib_a-reent.o)
 .ARM.attributes
                0x00000a9f       0x34 C:/FREESC~1/CWMCUV~1.7/CROSS_~1/ARM-NO~1/arm-none-eabi/lib/armv7e-m/softfp/libnosys.a(sbrk.o)

.debug_frame    0x00000000     0x4494
 .debug_frame   0x00000000       0x88 C:/Freescale_BM_USB_Stack_v5.0/Src/example/host/hid/mouse/bm/make/host_hid_mouse_twrk70f120m/gcc_arm/MK70FN1M0_HOST_Flash_debug/obj/bmevent.o
 .debug_frame   0x00000088       0x50 C:/Freescale_BM_USB_Stack_v5.0/Src/example/host/hid/mouse/bm/make/host_hid_mouse_twrk70f120m/gcc_arm/MK70FN1M0_HOST_Flash_debug/obj/bmisr.o
 .debug_frame   0x000000d8       0x88 C:/Freescale_BM_USB_Stack_v5.0/Src/example/host/hid/mouse/bm/make/host_hid_mouse_twrk70f120m/gcc_arm/MK70FN1M0_HOST_Flash_debug/obj/bmmsgq.o
 .debug_frame   0x00000160       0x9c C:/Freescale_BM_USB_Stack_v5.0/Src/example/host/hid/mouse/bm/make/host_hid_mouse_twrk70f120m/gcc_arm/MK70FN1M0_HOST_Flash_debug/obj/bmsem.o
 .debug_frame   0x000001fc      0x148 C:/Freescale_BM_USB_Stack_v5.0/Src/example/host/hid/mouse/bm/make/host_hid_mouse_twrk70f120m/gcc_arm/MK70FN1M0_HOST_Flash_debug/obj/hidmouse.o
 .debug_frame   0x00000344       0x2c C:/Freescale_BM_USB_Stack_v5.0/Src/example/host/hid/mouse/bm/make/host_hid_mouse_twrk70f120m/gcc_arm/MK70FN1M0_HOST_Flash_debug/obj/init_gpio.o
 .debug_frame   0x00000370       0x2c C:/Freescale_BM_USB_Stack_v5.0/Src/example/host/hid/mouse/bm/make/host_hid_mouse_twrk70f120m/gcc_arm/MK70FN1M0_HOST_Flash_debug/obj/main_kinetis.o
 .debug_frame   0x0000039c       0x70 C:/Freescale_BM_USB_Stack_v5.0/Src/example/host/hid/mouse/bm/make/host_hid_mouse_twrk70f120m/gcc_arm/MK70FN1M0_HOST_Flash_debug/obj/mem_util.o
 .debug_frame   0x0000040c       0x98 C:/Freescale_BM_USB_Stack_v5.0/Src/example/host/hid/mouse/bm/make/host_hid_mouse_twrk70f120m/gcc_arm/MK70FN1M0_HOST_Flash_debug/obj/nvic.o
 .debug_frame   0x000004a4       0x90 C:/Freescale_BM_USB_Stack_v5.0/Src/example/host/hid/mouse/bm/make/host_hid_mouse_twrk70f120m/gcc_arm/MK70FN1M0_HOST_Flash_debug/obj/pit_delay.o
 .debug_frame   0x00000534       0x84 C:/Freescale_BM_USB_Stack_v5.0/Src/example/host/hid/mouse/bm/make/host_hid_mouse_twrk70f120m/gcc_arm/MK70FN1M0_HOST_Flash_debug/obj/poll.o
 .debug_frame   0x000005b8       0xfc C:/Freescale_BM_USB_Stack_v5.0/Src/example/host/hid/mouse/bm/make/host_hid_mouse_twrk70f120m/gcc_arm/MK70FN1M0_HOST_Flash_debug/obj/printf.o
 .debug_frame   0x000006b4       0xb0 C:/Freescale_BM_USB_Stack_v5.0/Src/example/host/hid/mouse/bm/make/host_hid_mouse_twrk70f120m/gcc_arm/MK70FN1M0_HOST_Flash_debug/obj/rtc_kinetis.o
 .debug_frame   0x00000764       0xbc C:/Freescale_BM_USB_Stack_v5.0/Src/example/host/hid/mouse/bm/make/host_hid_mouse_twrk70f120m/gcc_arm/MK70FN1M0_HOST_Flash_debug/obj/sci.o
 .debug_frame   0x00000820       0x7c C:/Freescale_BM_USB_Stack_v5.0/Src/example/host/hid/mouse/bm/make/host_hid_mouse_twrk70f120m/gcc_arm/MK70FN1M0_HOST_Flash_debug/obj/soc_init.o
 .debug_frame   0x0000089c       0xec C:/Freescale_BM_USB_Stack_v5.0/Src/example/host/hid/mouse/bm/make/host_hid_mouse_twrk70f120m/gcc_arm/MK70FN1M0_HOST_Flash_debug/obj/soc_isr.o
 .debug_frame   0x00000988       0xd8 C:/Freescale_BM_USB_Stack_v5.0/Src/example/host/hid/mouse/bm/make/host_hid_mouse_twrk70f120m/gcc_arm/MK70FN1M0_HOST_Flash_debug/obj/soc_pit.o
 .debug_frame   0x00000a60       0x48 C:/Freescale_BM_USB_Stack_v5.0/Src/example/host/hid/mouse/bm/make/host_hid_mouse_twrk70f120m/gcc_arm/MK70FN1M0_HOST_Flash_debug/obj/soc_sci.o
 .debug_frame   0x00000aa8       0x48 C:/Freescale_BM_USB_Stack_v5.0/Src/example/host/hid/mouse/bm/make/host_hid_mouse_twrk70f120m/gcc_arm/MK70FN1M0_HOST_Flash_debug/obj/soc_usb.o
 .debug_frame   0x00000af0       0x48 C:/Freescale_BM_USB_Stack_v5.0/Src/example/host/hid/mouse/bm/make/host_hid_mouse_twrk70f120m/gcc_arm/MK70FN1M0_HOST_Flash_debug/obj/startup.o
 .debug_frame   0x00000b38       0x40 C:/Freescale_BM_USB_Stack_v5.0/Src/example/host/hid/mouse/bm/make/host_hid_mouse_twrk70f120m/gcc_arm/MK70FN1M0_HOST_Flash_debug/obj/system_MK70FN1M012.o
 .debug_frame   0x00000b78      0x2bc C:/Freescale_BM_USB_Stack_v5.0/Src/output/twrk70f120m.gcc_arm/debug/usbh/bm/usbh.a(adapter_bm.o)
 .debug_frame   0x00000e34      0x3a8 C:/Freescale_BM_USB_Stack_v5.0/Src/output/twrk70f120m.gcc_arm/debug/usbh/bm/usbh.a(usb_host.o)
 .debug_frame   0x000011dc       0x50 C:/Freescale_BM_USB_Stack_v5.0/Src/output/twrk70f120m.gcc_arm/debug/usbh/bm/usbh.a(usb_host_bsp.o)
 .debug_frame   0x0000122c      0x1b0 C:/Freescale_BM_USB_Stack_v5.0/Src/output/twrk70f120m.gcc_arm/debug/usbh/bm/usbh.a(usb_host_ch9.o)
 .debug_frame   0x000013dc       0xa4 C:/Freescale_BM_USB_Stack_v5.0/Src/output/twrk70f120m.gcc_arm/debug/usbh/bm/usbh.a(usb_host_common.o)
 .debug_frame   0x00001480      0x27c C:/Freescale_BM_USB_Stack_v5.0/Src/output/twrk70f120m.gcc_arm/debug/usbh/bm/usbh.a(usb_host_dev_mng.o)
 .debug_frame   0x000016fc      0x1d0 C:/Freescale_BM_USB_Stack_v5.0/Src/output/twrk70f120m.gcc_arm/debug/usbh/bm/usbh.a(usb_host_hid.o)
 .debug_frame   0x000018cc      0x154 C:/Freescale_BM_USB_Stack_v5.0/Src/output/twrk70f120m.gcc_arm/debug/usbh/bm/usbh.a(usb_host_hub_sm.o)
 .debug_frame   0x00001a20     0x1710 C:/Freescale_BM_USB_Stack_v5.0/Src/output/twrk70f120m.gcc_arm/debug/usbh/bm/usbh.a(ehci_host.o)
 .debug_frame   0x00003130      0x6b8 C:/Freescale_BM_USB_Stack_v5.0/Src/output/twrk70f120m.gcc_arm/debug/usbh/bm/usbh.a(khci.o)
 .debug_frame   0x000037e8      0x164 C:/Freescale_BM_USB_Stack_v5.0/Src/output/twrk70f120m.gcc_arm/debug/usbh/bm/usbh.a(usb_host_audio_intf.o)
 .debug_frame   0x0000394c      0x2bc C:/Freescale_BM_USB_Stack_v5.0/Src/output/twrk70f120m.gcc_arm/debug/usbh/bm/usbh.a(usb_host_cdc_intf.o)
 .debug_frame   0x00003c08      0x1cc C:/Freescale_BM_USB_Stack_v5.0/Src/output/twrk70f120m.gcc_arm/debug/usbh/bm/usbh.a(usb_host_hub.o)
 .debug_frame   0x00003dd4      0x230 C:/Freescale_BM_USB_Stack_v5.0/Src/output/twrk70f120m.gcc_arm/debug/usbh/bm/usbh.a(usb_host_msd_bo.o)
 .debug_frame   0x00004004       0xac C:/Freescale_BM_USB_Stack_v5.0/Src/output/twrk70f120m.gcc_arm/debug/usbh/bm/usbh.a(usb_host_msd_queue.o)
 .debug_frame   0x000040b0      0x1c8 C:/Freescale_BM_USB_Stack_v5.0/Src/output/twrk70f120m.gcc_arm/debug/usbh/bm/usbh.a(usb_host_phdc.o)
 .debug_frame   0x00004278       0x30 C:/FREESC~1/CWMCUV~1.7/CROSS_~1/ARM-NO~1/arm-none-eabi/lib/armv7e-m/softfp/libc.a(lib_a-malloc.o)
 .debug_frame   0x000042a8       0x38 C:/FREESC~1/CWMCUV~1.7/CROSS_~1/ARM-NO~1/arm-none-eabi/lib/armv7e-m/softfp/libc.a(lib_a-mallocr.o)
 .debug_frame   0x000042e0       0x30 C:/FREESC~1/CWMCUV~1.7/CROSS_~1/ARM-NO~1/arm-none-eabi/lib/armv7e-m/softfp/libc.a(lib_a-memcpy.o)
 .debug_frame   0x00004310       0x2c C:/FREESC~1/CWMCUV~1.7/CROSS_~1/ARM-NO~1/arm-none-eabi/lib/armv7e-m/softfp/libc.a(lib_a-memset.o)
 .debug_frame   0x0000433c       0x30 C:/FREESC~1/CWMCUV~1.7/CROSS_~1/ARM-NO~1/arm-none-eabi/lib/armv7e-m/softfp/libc.a(lib_a-mlock.o)
 .debug_frame   0x0000436c       0x2c C:/FREESC~1/CWMCUV~1.7/CROSS_~1/ARM-NO~1/arm-none-eabi/lib/armv7e-m/softfp/libc.a(lib_a-sbrkr.o)
 .debug_frame   0x00004398       0x20 C:/FREESC~1/CWMCUV~1.7/CROSS_~1/ARM-NO~1/arm-none-eabi/lib/armv7e-m/softfp/libc.a(lib_a-strlen.o)
 .debug_frame   0x000043b8       0x50 C:/FREESC~1/CWMCUV~1.7/CROSS_~1/ARM-NO~1/arm-none-eabi/lib/armv7e-m/softfp/libc.a(lib_a-freer.o)
 .debug_frame   0x00004408       0x6c C:/FREESC~1/CWMCUV~1.7/CROSS_~1/ARM-NO~1/arm-none-eabi/lib/armv7e-m/softfp/libc.a(lib_a-reent.o)
 .debug_frame   0x00004474       0x20 C:/FREESC~1/CWMCUV~1.7/CROSS_~1/ARM-NO~1/arm-none-eabi/lib/armv7e-m/softfp/libnosys.a(sbrk.o)

.debug_ranges   0x00000000       0x20
 .debug_ranges  0x00000000       0x20 C:/Freescale_BM_USB_Stack_v5.0/Src/example/host/hid/mouse/bm/make/host_hid_mouse_twrk70f120m/gcc_arm/MK70FN1M0_HOST_Flash_debug/obj/startup_MK70FN1M012.o

Cross Reference Table

Symbol                                            File
ADC0_IRQHandler                                   C:/Freescale_BM_USB_Stack_v5.0/Src/example/host/hid/mouse/bm/make/host_hid_mouse_twrk70f120m/gcc_arm/MK70FN1M0_HOST_Flash_debug/obj/startup_MK70FN1M012.o
ADC1_IRQHandler                                   C:/Freescale_BM_USB_Stack_v5.0/Src/example/host/hid/mouse/bm/make/host_hid_mouse_twrk70f120m/gcc_arm/MK70FN1M0_HOST_Flash_debug/obj/startup_MK70FN1M012.o
ADC2_IRQHandler                                   C:/Freescale_BM_USB_Stack_v5.0/Src/example/host/hid/mouse/bm/make/host_hid_mouse_twrk70f120m/gcc_arm/MK70FN1M0_HOST_Flash_debug/obj/startup_MK70FN1M012.o
ADC3_IRQHandler                                   C:/Freescale_BM_USB_Stack_v5.0/Src/example/host/hid/mouse/bm/make/host_hid_mouse_twrk70f120m/gcc_arm/MK70FN1M0_HOST_Flash_debug/obj/startup_MK70FN1M012.o
APP_init                                          C:/Freescale_BM_USB_Stack_v5.0/Src/example/host/hid/mouse/bm/make/host_hid_mouse_twrk70f120m/gcc_arm/MK70FN1M0_HOST_Flash_debug/obj/hidmouse.o
                                                  C:/Freescale_BM_USB_Stack_v5.0/Src/example/host/hid/mouse/bm/make/host_hid_mouse_twrk70f120m/gcc_arm/MK70FN1M0_HOST_Flash_debug/obj/main_kinetis.o
APP_task                                          C:/Freescale_BM_USB_Stack_v5.0/Src/example/host/hid/mouse/bm/make/host_hid_mouse_twrk70f120m/gcc_arm/MK70FN1M0_HOST_Flash_debug/obj/hidmouse.o
                                                  C:/Freescale_BM_USB_Stack_v5.0/Src/example/host/hid/mouse/bm/make/host_hid_mouse_twrk70f120m/gcc_arm/MK70FN1M0_HOST_Flash_debug/obj/main_kinetis.o
AddTimerQ                                         C:/Freescale_BM_USB_Stack_v5.0/Src/example/host/hid/mouse/bm/make/host_hid_mouse_twrk70f120m/gcc_arm/MK70FN1M0_HOST_Flash_debug/obj/rtc_kinetis.o
BM_mem_alloc_word_aligned                         C:/Freescale_BM_USB_Stack_v5.0/Src/example/host/hid/mouse/bm/make/host_hid_mouse_twrk70f120m/gcc_arm/MK70FN1M0_HOST_Flash_debug/obj/mem_util.o
                                                  C:/Freescale_BM_USB_Stack_v5.0/Src/output/twrk70f120m.gcc_arm/debug/usbh/bm/usbh.a(ehci_host.o)
                                                  C:/Freescale_BM_USB_Stack_v5.0/Src/output/twrk70f120m.gcc_arm/debug/usbh/bm/usbh.a(usb_host_ch9.o)
                                                  C:/Freescale_BM_USB_Stack_v5.0/Src/output/twrk70f120m.gcc_arm/debug/usbh/bm/usbh.a(adapter_bm.o)
BM_mem_alloc_zero                                 C:/Freescale_BM_USB_Stack_v5.0/Src/example/host/hid/mouse/bm/make/host_hid_mouse_twrk70f120m/gcc_arm/MK70FN1M0_HOST_Flash_debug/obj/mem_util.o
                                                  C:/Freescale_BM_USB_Stack_v5.0/Src/output/twrk70f120m.gcc_arm/debug/usbh/bm/usbh.a(usb_host_phdc.o)
                                                  C:/Freescale_BM_USB_Stack_v5.0/Src/output/twrk70f120m.gcc_arm/debug/usbh/bm/usbh.a(usb_host_msd_bo.o)
                                                  C:/Freescale_BM_USB_Stack_v5.0/Src/output/twrk70f120m.gcc_arm/debug/usbh/bm/usbh.a(usb_host_hub.o)
                                                  C:/Freescale_BM_USB_Stack_v5.0/Src/output/twrk70f120m.gcc_arm/debug/usbh/bm/usbh.a(usb_host_cdc_intf.o)
                                                  C:/Freescale_BM_USB_Stack_v5.0/Src/output/twrk70f120m.gcc_arm/debug/usbh/bm/usbh.a(usb_host_audio_intf.o)
                                                  C:/Freescale_BM_USB_Stack_v5.0/Src/output/twrk70f120m.gcc_arm/debug/usbh/bm/usbh.a(khci.o)
                                                  C:/Freescale_BM_USB_Stack_v5.0/Src/output/twrk70f120m.gcc_arm/debug/usbh/bm/usbh.a(ehci_host.o)
                                                  C:/Freescale_BM_USB_Stack_v5.0/Src/output/twrk70f120m.gcc_arm/debug/usbh/bm/usbh.a(usb_host_hub_sm.o)
                                                  C:/Freescale_BM_USB_Stack_v5.0/Src/output/twrk70f120m.gcc_arm/debug/usbh/bm/usbh.a(usb_host_hid.o)
                                                  C:/Freescale_BM_USB_Stack_v5.0/Src/output/twrk70f120m.gcc_arm/debug/usbh/bm/usbh.a(usb_host_dev_mng.o)
                                                  C:/Freescale_BM_USB_Stack_v5.0/Src/example/host/hid/mouse/bm/make/host_hid_mouse_twrk70f120m/gcc_arm/MK70FN1M0_HOST_Flash_debug/obj/hidmouse.o
BM_mem_free                                       C:/Freescale_BM_USB_Stack_v5.0/Src/example/host/hid/mouse/bm/make/host_hid_mouse_twrk70f120m/gcc_arm/MK70FN1M0_HOST_Flash_debug/obj/mem_util.o
                                                  C:/Freescale_BM_USB_Stack_v5.0/Src/output/twrk70f120m.gcc_arm/debug/usbh/bm/usbh.a(usb_host_phdc.o)
                                                  C:/Freescale_BM_USB_Stack_v5.0/Src/output/twrk70f120m.gcc_arm/debug/usbh/bm/usbh.a(usb_host_msd_bo.o)
                                                  C:/Freescale_BM_USB_Stack_v5.0/Src/output/twrk70f120m.gcc_arm/debug/usbh/bm/usbh.a(usb_host_hub.o)
                                                  C:/Freescale_BM_USB_Stack_v5.0/Src/output/twrk70f120m.gcc_arm/debug/usbh/bm/usbh.a(usb_host_cdc_intf.o)
                                                  C:/Freescale_BM_USB_Stack_v5.0/Src/output/twrk70f120m.gcc_arm/debug/usbh/bm/usbh.a(usb_host_audio_intf.o)
                                                  C:/Freescale_BM_USB_Stack_v5.0/Src/output/twrk70f120m.gcc_arm/debug/usbh/bm/usbh.a(khci.o)
                                                  C:/Freescale_BM_USB_Stack_v5.0/Src/output/twrk70f120m.gcc_arm/debug/usbh/bm/usbh.a(ehci_host.o)
                                                  C:/Freescale_BM_USB_Stack_v5.0/Src/output/twrk70f120m.gcc_arm/debug/usbh/bm/usbh.a(usb_host_hub_sm.o)
                                                  C:/Freescale_BM_USB_Stack_v5.0/Src/output/twrk70f120m.gcc_arm/debug/usbh/bm/usbh.a(usb_host_hid.o)
                                                  C:/Freescale_BM_USB_Stack_v5.0/Src/output/twrk70f120m.gcc_arm/debug/usbh/bm/usbh.a(usb_host_dev_mng.o)
                                                  C:/Freescale_BM_USB_Stack_v5.0/Src/output/twrk70f120m.gcc_arm/debug/usbh/bm/usbh.a(usb_host_ch9.o)
                                                  C:/Freescale_BM_USB_Stack_v5.0/Src/output/twrk70f120m.gcc_arm/debug/usbh/bm/usbh.a(usb_host.o)
                                                  C:/Freescale_BM_USB_Stack_v5.0/Src/output/twrk70f120m.gcc_arm/debug/usbh/bm/usbh.a(adapter_bm.o)
                                                  C:/Freescale_BM_USB_Stack_v5.0/Src/example/host/hid/mouse/bm/make/host_hid_mouse_twrk70f120m/gcc_arm/MK70FN1M0_HOST_Flash_debug/obj/hidmouse.o
BusFault_Handler                                  C:/Freescale_BM_USB_Stack_v5.0/Src/example/host/hid/mouse/bm/make/host_hid_mouse_twrk70f120m/gcc_arm/MK70FN1M0_HOST_Flash_debug/obj/startup_MK70FN1M012.o
CAN0_BUS_OFF_IRQHandler                           C:/Freescale_BM_USB_Stack_v5.0/Src/example/host/hid/mouse/bm/make/host_hid_mouse_twrk70f120m/gcc_arm/MK70FN1M0_HOST_Flash_debug/obj/startup_MK70FN1M012.o
CAN0_ERR_IRQHandler                               C:/Freescale_BM_USB_Stack_v5.0/Src/example/host/hid/mouse/bm/make/host_hid_mouse_twrk70f120m/gcc_arm/MK70FN1M0_HOST_Flash_debug/obj/startup_MK70FN1M012.o
CAN0_IMEU_IRQHandler                              C:/Freescale_BM_USB_Stack_v5.0/Src/example/host/hid/mouse/bm/make/host_hid_mouse_twrk70f120m/gcc_arm/MK70FN1M0_HOST_Flash_debug/obj/startup_MK70FN1M012.o
CAN0_LR_IRQHandler                                C:/Freescale_BM_USB_Stack_v5.0/Src/example/host/hid/mouse/bm/make/host_hid_mouse_twrk70f120m/gcc_arm/MK70FN1M0_HOST_Flash_debug/obj/startup_MK70FN1M012.o
CAN0_MESS_IRQHandler                              C:/Freescale_BM_USB_Stack_v5.0/Src/example/host/hid/mouse/bm/make/host_hid_mouse_twrk70f120m/gcc_arm/MK70FN1M0_HOST_Flash_debug/obj/startup_MK70FN1M012.o
CAN0_RW_IRQHandler                                C:/Freescale_BM_USB_Stack_v5.0/Src/example/host/hid/mouse/bm/make/host_hid_mouse_twrk70f120m/gcc_arm/MK70FN1M0_HOST_Flash_debug/obj/startup_MK70FN1M012.o
CAN0_TW_IRQHandler                                C:/Freescale_BM_USB_Stack_v5.0/Src/example/host/hid/mouse/bm/make/host_hid_mouse_twrk70f120m/gcc_arm/MK70FN1M0_HOST_Flash_debug/obj/startup_MK70FN1M012.o
CAN0_WAKE_UP_IRQHandler                           C:/Freescale_BM_USB_Stack_v5.0/Src/example/host/hid/mouse/bm/make/host_hid_mouse_twrk70f120m/gcc_arm/MK70FN1M0_HOST_Flash_debug/obj/startup_MK70FN1M012.o
CAN1_BUS_OFF_IRQHandler                           C:/Freescale_BM_USB_Stack_v5.0/Src/example/host/hid/mouse/bm/make/host_hid_mouse_twrk70f120m/gcc_arm/MK70FN1M0_HOST_Flash_debug/obj/startup_MK70FN1M012.o
CAN1_ERR_IRQHandler                               C:/Freescale_BM_USB_Stack_v5.0/Src/example/host/hid/mouse/bm/make/host_hid_mouse_twrk70f120m/gcc_arm/MK70FN1M0_HOST_Flash_debug/obj/startup_MK70FN1M012.o
CAN1_LR_IRQHandler                                C:/Freescale_BM_USB_Stack_v5.0/Src/example/host/hid/mouse/bm/make/host_hid_mouse_twrk70f120m/gcc_arm/MK70FN1M0_HOST_Flash_debug/obj/startup_MK70FN1M012.o
CAN1_MESS_IRQHandler                              C:/Freescale_BM_USB_Stack_v5.0/Src/example/host/hid/mouse/bm/make/host_hid_mouse_twrk70f120m/gcc_arm/MK70FN1M0_HOST_Flash_debug/obj/startup_MK70FN1M012.o
CAN1_RW_IRQHandler                                C:/Freescale_BM_USB_Stack_v5.0/Src/example/host/hid/mouse/bm/make/host_hid_mouse_twrk70f120m/gcc_arm/MK70FN1M0_HOST_Flash_debug/obj/startup_MK70FN1M012.o
CAN1_TW_IRQHandler                                C:/Freescale_BM_USB_Stack_v5.0/Src/example/host/hid/mouse/bm/make/host_hid_mouse_twrk70f120m/gcc_arm/MK70FN1M0_HOST_Flash_debug/obj/startup_MK70FN1M012.o
CAN1_WAKE_UP_IRQHandler                           C:/Freescale_BM_USB_Stack_v5.0/Src/example/host/hid/mouse/bm/make/host_hid_mouse_twrk70f120m/gcc_arm/MK70FN1M0_HOST_Flash_debug/obj/startup_MK70FN1M012.o
CMP0_IRQHandler                                   C:/Freescale_BM_USB_Stack_v5.0/Src/example/host/hid/mouse/bm/make/host_hid_mouse_twrk70f120m/gcc_arm/MK70FN1M0_HOST_Flash_debug/obj/startup_MK70FN1M012.o
CMP1_IRQHandler                                   C:/Freescale_BM_USB_Stack_v5.0/Src/example/host/hid/mouse/bm/make/host_hid_mouse_twrk70f120m/gcc_arm/MK70FN1M0_HOST_Flash_debug/obj/startup_MK70FN1M012.o
CMP2_IRQHandler                                   C:/Freescale_BM_USB_Stack_v5.0/Src/example/host/hid/mouse/bm/make/host_hid_mouse_twrk70f120m/gcc_arm/MK70FN1M0_HOST_Flash_debug/obj/startup_MK70FN1M012.o
CMP3_IRQHandler                                   C:/Freescale_BM_USB_Stack_v5.0/Src/example/host/hid/mouse/bm/make/host_hid_mouse_twrk70f120m/gcc_arm/MK70FN1M0_HOST_Flash_debug/obj/startup_MK70FN1M012.o
CMT_IRQHandler                                    C:/Freescale_BM_USB_Stack_v5.0/Src/example/host/hid/mouse/bm/make/host_hid_mouse_twrk70f120m/gcc_arm/MK70FN1M0_HOST_Flash_debug/obj/startup_MK70FN1M012.o
DAC0_IRQHandler                                   C:/Freescale_BM_USB_Stack_v5.0/Src/example/host/hid/mouse/bm/make/host_hid_mouse_twrk70f120m/gcc_arm/MK70FN1M0_HOST_Flash_debug/obj/startup_MK70FN1M012.o
DAC1_IRQHandler                                   C:/Freescale_BM_USB_Stack_v5.0/Src/example/host/hid/mouse/bm/make/host_hid_mouse_twrk70f120m/gcc_arm/MK70FN1M0_HOST_Flash_debug/obj/startup_MK70FN1M012.o
DMA0_IRQHandler                                   C:/Freescale_BM_USB_Stack_v5.0/Src/example/host/hid/mouse/bm/make/host_hid_mouse_twrk70f120m/gcc_arm/MK70FN1M0_HOST_Flash_debug/obj/startup_MK70FN1M012.o
DMA10_IRQHandler                                  C:/Freescale_BM_USB_Stack_v5.0/Src/example/host/hid/mouse/bm/make/host_hid_mouse_twrk70f120m/gcc_arm/MK70FN1M0_HOST_Flash_debug/obj/startup_MK70FN1M012.o
DMA11_IRQHandler                                  C:/Freescale_BM_USB_Stack_v5.0/Src/example/host/hid/mouse/bm/make/host_hid_mouse_twrk70f120m/gcc_arm/MK70FN1M0_HOST_Flash_debug/obj/startup_MK70FN1M012.o
DMA12_IRQHandler                                  C:/Freescale_BM_USB_Stack_v5.0/Src/example/host/hid/mouse/bm/make/host_hid_mouse_twrk70f120m/gcc_arm/MK70FN1M0_HOST_Flash_debug/obj/startup_MK70FN1M012.o
DMA13_IRQHandler                                  C:/Freescale_BM_USB_Stack_v5.0/Src/example/host/hid/mouse/bm/make/host_hid_mouse_twrk70f120m/gcc_arm/MK70FN1M0_HOST_Flash_debug/obj/startup_MK70FN1M012.o
DMA14_IRQHandler                                  C:/Freescale_BM_USB_Stack_v5.0/Src/example/host/hid/mouse/bm/make/host_hid_mouse_twrk70f120m/gcc_arm/MK70FN1M0_HOST_Flash_debug/obj/startup_MK70FN1M012.o
DMA15_IRQHandler                                  C:/Freescale_BM_USB_Stack_v5.0/Src/example/host/hid/mouse/bm/make/host_hid_mouse_twrk70f120m/gcc_arm/MK70FN1M0_HOST_Flash_debug/obj/startup_MK70FN1M012.o
DMA1_IRQHandler                                   C:/Freescale_BM_USB_Stack_v5.0/Src/example/host/hid/mouse/bm/make/host_hid_mouse_twrk70f120m/gcc_arm/MK70FN1M0_HOST_Flash_debug/obj/startup_MK70FN1M012.o
DMA2_IRQHandler                                   C:/Freescale_BM_USB_Stack_v5.0/Src/example/host/hid/mouse/bm/make/host_hid_mouse_twrk70f120m/gcc_arm/MK70FN1M0_HOST_Flash_debug/obj/startup_MK70FN1M012.o
DMA3_IRQHandler                                   C:/Freescale_BM_USB_Stack_v5.0/Src/example/host/hid/mouse/bm/make/host_hid_mouse_twrk70f120m/gcc_arm/MK70FN1M0_HOST_Flash_debug/obj/startup_MK70FN1M012.o
DMA4_IRQHandler                                   C:/Freescale_BM_USB_Stack_v5.0/Src/example/host/hid/mouse/bm/make/host_hid_mouse_twrk70f120m/gcc_arm/MK70FN1M0_HOST_Flash_debug/obj/startup_MK70FN1M012.o
DMA5_IRQHandler                                   C:/Freescale_BM_USB_Stack_v5.0/Src/example/host/hid/mouse/bm/make/host_hid_mouse_twrk70f120m/gcc_arm/MK70FN1M0_HOST_Flash_debug/obj/startup_MK70FN1M012.o
DMA6_IRQHandler                                   C:/Freescale_BM_USB_Stack_v5.0/Src/example/host/hid/mouse/bm/make/host_hid_mouse_twrk70f120m/gcc_arm/MK70FN1M0_HOST_Flash_debug/obj/startup_MK70FN1M012.o
DMA7_IRQHandler                                   C:/Freescale_BM_USB_Stack_v5.0/Src/example/host/hid/mouse/bm/make/host_hid_mouse_twrk70f120m/gcc_arm/MK70FN1M0_HOST_Flash_debug/obj/startup_MK70FN1M012.o
DMA8_IRQHandler                                   C:/Freescale_BM_USB_Stack_v5.0/Src/example/host/hid/mouse/bm/make/host_hid_mouse_twrk70f120m/gcc_arm/MK70FN1M0_HOST_Flash_debug/obj/startup_MK70FN1M012.o
DMA9_IRQHandler                                   C:/Freescale_BM_USB_Stack_v5.0/Src/example/host/hid/mouse/bm/make/host_hid_mouse_twrk70f120m/gcc_arm/MK70FN1M0_HOST_Flash_debug/obj/startup_MK70FN1M012.o
DMA_Error_IRQHandler                              C:/Freescale_BM_USB_Stack_v5.0/Src/example/host/hid/mouse/bm/make/host_hid_mouse_twrk70f120m/gcc_arm/MK70FN1M0_HOST_Flash_debug/obj/startup_MK70FN1M012.o
DebugMon_Handler                                  C:/Freescale_BM_USB_Stack_v5.0/Src/example/host/hid/mouse/bm/make/host_hid_mouse_twrk70f120m/gcc_arm/MK70FN1M0_HOST_Flash_debug/obj/startup_MK70FN1M012.o
DefaultISR                                        C:/Freescale_BM_USB_Stack_v5.0/Src/example/host/hid/mouse/bm/make/host_hid_mouse_twrk70f120m/gcc_arm/MK70FN1M0_HOST_Flash_debug/obj/startup_MK70FN1M012.o
Default_Handler                                   C:/Freescale_BM_USB_Stack_v5.0/Src/example/host/hid/mouse/bm/make/host_hid_mouse_twrk70f120m/gcc_arm/MK70FN1M0_HOST_Flash_debug/obj/startup_MK70FN1M012.o
FTF_IRQHandler                                    C:/Freescale_BM_USB_Stack_v5.0/Src/example/host/hid/mouse/bm/make/host_hid_mouse_twrk70f120m/gcc_arm/MK70FN1M0_HOST_Flash_debug/obj/startup_MK70FN1M012.o
FTM0_IRQHandler                                   C:/Freescale_BM_USB_Stack_v5.0/Src/example/host/hid/mouse/bm/make/host_hid_mouse_twrk70f120m/gcc_arm/MK70FN1M0_HOST_Flash_debug/obj/startup_MK70FN1M012.o
FTM1_IRQHandler                                   C:/Freescale_BM_USB_Stack_v5.0/Src/example/host/hid/mouse/bm/make/host_hid_mouse_twrk70f120m/gcc_arm/MK70FN1M0_HOST_Flash_debug/obj/startup_MK70FN1M012.o
FTM2_IRQHandler                                   C:/Freescale_BM_USB_Stack_v5.0/Src/example/host/hid/mouse/bm/make/host_hid_mouse_twrk70f120m/gcc_arm/MK70FN1M0_HOST_Flash_debug/obj/startup_MK70FN1M012.o
FTM3_IRQHandler                                   C:/Freescale_BM_USB_Stack_v5.0/Src/example/host/hid/mouse/bm/make/host_hid_mouse_twrk70f120m/gcc_arm/MK70FN1M0_HOST_Flash_debug/obj/startup_MK70FN1M012.o
GLCD_IRQHandler                                   C:/Freescale_BM_USB_Stack_v5.0/Src/example/host/hid/mouse/bm/make/host_hid_mouse_twrk70f120m/gcc_arm/MK70FN1M0_HOST_Flash_debug/obj/startup_MK70FN1M012.o
HardFault_Handler                                 C:/Freescale_BM_USB_Stack_v5.0/Src/example/host/hid/mouse/bm/make/host_hid_mouse_twrk70f120m/gcc_arm/MK70FN1M0_HOST_Flash_debug/obj/startup_MK70FN1M012.o
I2C0_IRQHandler                                   C:/Freescale_BM_USB_Stack_v5.0/Src/example/host/hid/mouse/bm/make/host_hid_mouse_twrk70f120m/gcc_arm/MK70FN1M0_HOST_Flash_debug/obj/startup_MK70FN1M012.o
I2C1_IRQHandler                                   C:/Freescale_BM_USB_Stack_v5.0/Src/example/host/hid/mouse/bm/make/host_hid_mouse_twrk70f120m/gcc_arm/MK70FN1M0_HOST_Flash_debug/obj/startup_MK70FN1M012.o
I2S0_Receive                                      C:/Freescale_BM_USB_Stack_v5.0/Src/example/host/hid/mouse/bm/make/host_hid_mouse_twrk70f120m/gcc_arm/MK70FN1M0_HOST_Flash_debug/obj/startup_MK70FN1M012.o
I2S0_TX_ISR                                       C:/Freescale_BM_USB_Stack_v5.0/Src/example/host/hid/mouse/bm/make/host_hid_mouse_twrk70f120m/gcc_arm/MK70FN1M0_HOST_Flash_debug/obj/soc_isr.o
                                                  C:/Freescale_BM_USB_Stack_v5.0/Src/example/host/hid/mouse/bm/make/host_hid_mouse_twrk70f120m/gcc_arm/MK70FN1M0_HOST_Flash_debug/obj/startup_MK70FN1M012.o
I2S0_Transmit                                     C:/Freescale_BM_USB_Stack_v5.0/Src/example/host/hid/mouse/bm/make/host_hid_mouse_twrk70f120m/gcc_arm/MK70FN1M0_HOST_Flash_debug/obj/startup_MK70FN1M012.o
I2S1_Tx_IRQHandler                                C:/Freescale_BM_USB_Stack_v5.0/Src/example/host/hid/mouse/bm/make/host_hid_mouse_twrk70f120m/gcc_arm/MK70FN1M0_HOST_Flash_debug/obj/startup_MK70FN1M012.o
I2S2_Rx_IRQHandler                                C:/Freescale_BM_USB_Stack_v5.0/Src/example/host/hid/mouse/bm/make/host_hid_mouse_twrk70f120m/gcc_arm/MK70FN1M0_HOST_Flash_debug/obj/startup_MK70FN1M012.o
I2S_IRQHandler                                    C:/Freescale_BM_USB_Stack_v5.0/Src/example/host/hid/mouse/bm/make/host_hid_mouse_twrk70f120m/gcc_arm/MK70FN1M0_HOST_Flash_debug/obj/startup_MK70FN1M012.o
LCD_IRQHandler                                    C:/Freescale_BM_USB_Stack_v5.0/Src/example/host/hid/mouse/bm/make/host_hid_mouse_twrk70f120m/gcc_arm/MK70FN1M0_HOST_Flash_debug/obj/startup_MK70FN1M012.o
LLW_IRQHandler                                    C:/Freescale_BM_USB_Stack_v5.0/Src/example/host/hid/mouse/bm/make/host_hid_mouse_twrk70f120m/gcc_arm/MK70FN1M0_HOST_Flash_debug/obj/startup_MK70FN1M012.o
LPTimer_IRQHandler                                C:/Freescale_BM_USB_Stack_v5.0/Src/example/host/hid/mouse/bm/make/host_hid_mouse_twrk70f120m/gcc_arm/MK70FN1M0_HOST_Flash_debug/obj/startup_MK70FN1M012.o
LVD_LVW_IRQHandler                                C:/Freescale_BM_USB_Stack_v5.0/Src/example/host/hid/mouse/bm/make/host_hid_mouse_twrk70f120m/gcc_arm/MK70FN1M0_HOST_Flash_debug/obj/startup_MK70FN1M012.o
MCG_IRQHandler                                    C:/Freescale_BM_USB_Stack_v5.0/Src/example/host/hid/mouse/bm/make/host_hid_mouse_twrk70f120m/gcc_arm/MK70FN1M0_HOST_Flash_debug/obj/startup_MK70FN1M012.o
MCM_IRQHandler                                    C:/Freescale_BM_USB_Stack_v5.0/Src/example/host/hid/mouse/bm/make/host_hid_mouse_twrk70f120m/gcc_arm/MK70FN1M0_HOST_Flash_debug/obj/startup_MK70FN1M012.o
MemManage_Handler                                 C:/Freescale_BM_USB_Stack_v5.0/Src/example/host/hid/mouse/bm/make/host_hid_mouse_twrk70f120m/gcc_arm/MK70FN1M0_HOST_Flash_debug/obj/startup_MK70FN1M012.o
NFC_IRQHandler                                    C:/Freescale_BM_USB_Stack_v5.0/Src/example/host/hid/mouse/bm/make/host_hid_mouse_twrk70f120m/gcc_arm/MK70FN1M0_HOST_Flash_debug/obj/startup_MK70FN1M012.o
NMI_Handler                                       C:/Freescale_BM_USB_Stack_v5.0/Src/example/host/hid/mouse/bm/make/host_hid_mouse_twrk70f120m/gcc_arm/MK70FN1M0_HOST_Flash_debug/obj/startup_MK70FN1M012.o
OS_Event_check_bit                                C:/Freescale_BM_USB_Stack_v5.0/Src/output/twrk70f120m.gcc_arm/debug/usbh/bm/usbh.a(adapter_bm.o)
                                                  C:/Freescale_BM_USB_Stack_v5.0/Src/output/twrk70f120m.gcc_arm/debug/usbh/bm/usbh.a(khci.o)
                                                  C:/Freescale_BM_USB_Stack_v5.0/Src/output/twrk70f120m.gcc_arm/debug/usbh/bm/usbh.a(ehci_host.o)
                                                  C:/Freescale_BM_USB_Stack_v5.0/Src/example/host/hid/mouse/bm/make/host_hid_mouse_twrk70f120m/gcc_arm/MK70FN1M0_HOST_Flash_debug/obj/hidmouse.o
OS_Event_create                                   C:/Freescale_BM_USB_Stack_v5.0/Src/output/twrk70f120m.gcc_arm/debug/usbh/bm/usbh.a(adapter_bm.o)
                                                  C:/Freescale_BM_USB_Stack_v5.0/Src/output/twrk70f120m.gcc_arm/debug/usbh/bm/usbh.a(khci.o)
                                                  C:/Freescale_BM_USB_Stack_v5.0/Src/output/twrk70f120m.gcc_arm/debug/usbh/bm/usbh.a(ehci_host.o)
                                                  C:/Freescale_BM_USB_Stack_v5.0/Src/example/host/hid/mouse/bm/make/host_hid_mouse_twrk70f120m/gcc_arm/MK70FN1M0_HOST_Flash_debug/obj/hidmouse.o
OS_Event_destroy                                  C:/Freescale_BM_USB_Stack_v5.0/Src/output/twrk70f120m.gcc_arm/debug/usbh/bm/usbh.a(adapter_bm.o)
                                                  C:/Freescale_BM_USB_Stack_v5.0/Src/output/twrk70f120m.gcc_arm/debug/usbh/bm/usbh.a(khci.o)
                                                  C:/Freescale_BM_USB_Stack_v5.0/Src/output/twrk70f120m.gcc_arm/debug/usbh/bm/usbh.a(ehci_host.o)
OS_Event_get_value                                C:/Freescale_BM_USB_Stack_v5.0/Src/output/twrk70f120m.gcc_arm/debug/usbh/bm/usbh.a(adapter_bm.o)
OS_Event_wait                                     C:/Freescale_BM_USB_Stack_v5.0/Src/output/twrk70f120m.gcc_arm/debug/usbh/bm/usbh.a(adapter_bm.o)
                                                  C:/Freescale_BM_USB_Stack_v5.0/Src/output/twrk70f120m.gcc_arm/debug/usbh/bm/usbh.a(khci.o)
                                                  C:/Freescale_BM_USB_Stack_v5.0/Src/example/host/hid/mouse/bm/make/host_hid_mouse_twrk70f120m/gcc_arm/MK70FN1M0_HOST_Flash_debug/obj/hidmouse.o
OS_Gpio_deinit                                    C:/Freescale_BM_USB_Stack_v5.0/Src/output/twrk70f120m.gcc_arm/debug/usbh/bm/usbh.a(adapter_bm.o)
OS_Gpio_init                                      C:/Freescale_BM_USB_Stack_v5.0/Src/output/twrk70f120m.gcc_arm/debug/usbh/bm/usbh.a(adapter_bm.o)
                                                  C:/Freescale_BM_USB_Stack_v5.0/Src/output/twrk70f120m.gcc_arm/debug/usbh/bm/usbh.a(khci.o)
OS_Gpio_set_functionality                         C:/Freescale_BM_USB_Stack_v5.0/Src/output/twrk70f120m.gcc_arm/debug/usbh/bm/usbh.a(adapter_bm.o)
                                                  C:/Freescale_BM_USB_Stack_v5.0/Src/output/twrk70f120m.gcc_arm/debug/usbh/bm/usbh.a(khci.o)
OS_Gpio_set_value                                 C:/Freescale_BM_USB_Stack_v5.0/Src/output/twrk70f120m.gcc_arm/debug/usbh/bm/usbh.a(adapter_bm.o)
                                                  C:/Freescale_BM_USB_Stack_v5.0/Src/output/twrk70f120m.gcc_arm/debug/usbh/bm/usbh.a(khci.o)
OS_MsgQ_Is_Empty                                  C:/Freescale_BM_USB_Stack_v5.0/Src/output/twrk70f120m.gcc_arm/debug/usbh/bm/usbh.a(adapter_bm.o)
                                                  C:/Freescale_BM_USB_Stack_v5.0/Src/output/twrk70f120m.gcc_arm/debug/usbh/bm/usbh.a(khci.o)
OS_MsgQ_recv                                      C:/Freescale_BM_USB_Stack_v5.0/Src/output/twrk70f120m.gcc_arm/debug/usbh/bm/usbh.a(adapter_bm.o)
                                                  C:/Freescale_BM_USB_Stack_v5.0/Src/output/twrk70f120m.gcc_arm/debug/usbh/bm/usbh.a(khci.o)
OS_MsgQ_send                                      C:/Freescale_BM_USB_Stack_v5.0/Src/output/twrk70f120m.gcc_arm/debug/usbh/bm/usbh.a(adapter_bm.o)
                                                  C:/Freescale_BM_USB_Stack_v5.0/Src/output/twrk70f120m.gcc_arm/debug/usbh/bm/usbh.a(khci.o)
OS_Mutex_create                                   C:/Freescale_BM_USB_Stack_v5.0/Src/output/twrk70f120m.gcc_arm/debug/usbh/bm/usbh.a(adapter_bm.o)
                                                  C:/Freescale_BM_USB_Stack_v5.0/Src/output/twrk70f120m.gcc_arm/debug/usbh/bm/usbh.a(usb_host_phdc.o)
                                                  C:/Freescale_BM_USB_Stack_v5.0/Src/output/twrk70f120m.gcc_arm/debug/usbh/bm/usbh.a(usb_host_msd_bo.o)
                                                  C:/Freescale_BM_USB_Stack_v5.0/Src/output/twrk70f120m.gcc_arm/debug/usbh/bm/usbh.a(usb_host_cdc_intf.o)
                                                  C:/Freescale_BM_USB_Stack_v5.0/Src/output/twrk70f120m.gcc_arm/debug/usbh/bm/usbh.a(ehci_host.o)
                                                  C:/Freescale_BM_USB_Stack_v5.0/Src/output/twrk70f120m.gcc_arm/debug/usbh/bm/usbh.a(usb_host.o)
OS_Mutex_destroy                                  C:/Freescale_BM_USB_Stack_v5.0/Src/output/twrk70f120m.gcc_arm/debug/usbh/bm/usbh.a(adapter_bm.o)
                                                  C:/Freescale_BM_USB_Stack_v5.0/Src/output/twrk70f120m.gcc_arm/debug/usbh/bm/usbh.a(usb_host_phdc.o)
                                                  C:/Freescale_BM_USB_Stack_v5.0/Src/output/twrk70f120m.gcc_arm/debug/usbh/bm/usbh.a(usb_host_msd_bo.o)
                                                  C:/Freescale_BM_USB_Stack_v5.0/Src/output/twrk70f120m.gcc_arm/debug/usbh/bm/usbh.a(usb_host_cdc_intf.o)
                                                  C:/Freescale_BM_USB_Stack_v5.0/Src/output/twrk70f120m.gcc_arm/debug/usbh/bm/usbh.a(ehci_host.o)
                                                  C:/Freescale_BM_USB_Stack_v5.0/Src/output/twrk70f120m.gcc_arm/debug/usbh/bm/usbh.a(usb_host.o)
OS_Mutex_lock                                     C:/Freescale_BM_USB_Stack_v5.0/Src/output/twrk70f120m.gcc_arm/debug/usbh/bm/usbh.a(adapter_bm.o)
                                                  C:/Freescale_BM_USB_Stack_v5.0/Src/output/twrk70f120m.gcc_arm/debug/usbh/bm/usbh.a(usb_host_msd_queue.o)
                                                  C:/Freescale_BM_USB_Stack_v5.0/Src/output/twrk70f120m.gcc_arm/debug/usbh/bm/usbh.a(usb_host_cdc_intf.o)
                                                  C:/Freescale_BM_USB_Stack_v5.0/Src/output/twrk70f120m.gcc_arm/debug/usbh/bm/usbh.a(ehci_host.o)
                                                  C:/Freescale_BM_USB_Stack_v5.0/Src/output/twrk70f120m.gcc_arm/debug/usbh/bm/usbh.a(usb_host_hub_sm.o)
                                                  C:/Freescale_BM_USB_Stack_v5.0/Src/output/twrk70f120m.gcc_arm/debug/usbh/bm/usbh.a(usb_host_dev_mng.o)
                                                  C:/Freescale_BM_USB_Stack_v5.0/Src/output/twrk70f120m.gcc_arm/debug/usbh/bm/usbh.a(usb_host_common.o)
                                                  C:/Freescale_BM_USB_Stack_v5.0/Src/output/twrk70f120m.gcc_arm/debug/usbh/bm/usbh.a(usb_host.o)
OS_Mutex_unlock                                   C:/Freescale_BM_USB_Stack_v5.0/Src/output/twrk70f120m.gcc_arm/debug/usbh/bm/usbh.a(adapter_bm.o)
                                                  C:/Freescale_BM_USB_Stack_v5.0/Src/output/twrk70f120m.gcc_arm/debug/usbh/bm/usbh.a(usb_host_msd_queue.o)
                                                  C:/Freescale_BM_USB_Stack_v5.0/Src/output/twrk70f120m.gcc_arm/debug/usbh/bm/usbh.a(usb_host_cdc_intf.o)
                                                  C:/Freescale_BM_USB_Stack_v5.0/Src/output/twrk70f120m.gcc_arm/debug/usbh/bm/usbh.a(ehci_host.o)
                                                  C:/Freescale_BM_USB_Stack_v5.0/Src/output/twrk70f120m.gcc_arm/debug/usbh/bm/usbh.a(usb_host_hub_sm.o)
                                                  C:/Freescale_BM_USB_Stack_v5.0/Src/output/twrk70f120m.gcc_arm/debug/usbh/bm/usbh.a(usb_host_dev_mng.o)
                                                  C:/Freescale_BM_USB_Stack_v5.0/Src/output/twrk70f120m.gcc_arm/debug/usbh/bm/usbh.a(usb_host_common.o)
                                                  C:/Freescale_BM_USB_Stack_v5.0/Src/output/twrk70f120m.gcc_arm/debug/usbh/bm/usbh.a(usb_host.o)
OS_Sem_create                                     C:/Freescale_BM_USB_Stack_v5.0/Src/output/twrk70f120m.gcc_arm/debug/usbh/bm/usbh.a(adapter_bm.o)
                                                  C:/Freescale_BM_USB_Stack_v5.0/Src/output/twrk70f120m.gcc_arm/debug/usbh/bm/usbh.a(usb_host.o)
OS_Sem_destroy                                    C:/Freescale_BM_USB_Stack_v5.0/Src/output/twrk70f120m.gcc_arm/debug/usbh/bm/usbh.a(adapter_bm.o)
                                                  C:/Freescale_BM_USB_Stack_v5.0/Src/output/twrk70f120m.gcc_arm/debug/usbh/bm/usbh.a(usb_host.o)
OS_Sem_wait                                       C:/Freescale_BM_USB_Stack_v5.0/Src/output/twrk70f120m.gcc_arm/debug/usbh/bm/usbh.a(adapter_bm.o)
                                                  C:/Freescale_BM_USB_Stack_v5.0/Src/output/twrk70f120m.gcc_arm/debug/usbh/bm/usbh.a(usb_host_hub_sm.o)
OS_Task_create                                    C:/Freescale_BM_USB_Stack_v5.0/Src/output/twrk70f120m.gcc_arm/debug/usbh/bm/usbh.a(adapter_bm.o)
                                                  C:/Freescale_BM_USB_Stack_v5.0/Src/output/twrk70f120m.gcc_arm/debug/usbh/bm/usbh.a(khci.o)
                                                  C:/Freescale_BM_USB_Stack_v5.0/Src/output/twrk70f120m.gcc_arm/debug/usbh/bm/usbh.a(ehci_host.o)
                                                  C:/Freescale_BM_USB_Stack_v5.0/Src/output/twrk70f120m.gcc_arm/debug/usbh/bm/usbh.a(usb_host_hub_sm.o)
OS_Task_delete                                    C:/Freescale_BM_USB_Stack_v5.0/Src/output/twrk70f120m.gcc_arm/debug/usbh/bm/usbh.a(adapter_bm.o)
                                                  C:/Freescale_BM_USB_Stack_v5.0/Src/output/twrk70f120m.gcc_arm/debug/usbh/bm/usbh.a(khci.o)
                                                  C:/Freescale_BM_USB_Stack_v5.0/Src/output/twrk70f120m.gcc_arm/debug/usbh/bm/usbh.a(ehci_host.o)
                                                  C:/Freescale_BM_USB_Stack_v5.0/Src/output/twrk70f120m.gcc_arm/debug/usbh/bm/usbh.a(usb_host.o)
OS_Task_resume                                    C:/Freescale_BM_USB_Stack_v5.0/Src/output/twrk70f120m.gcc_arm/debug/usbh/bm/usbh.a(adapter_bm.o)
OS_Task_suspend                                   C:/Freescale_BM_USB_Stack_v5.0/Src/output/twrk70f120m.gcc_arm/debug/usbh/bm/usbh.a(adapter_bm.o)
PDB0_IRQHandler                                   C:/Freescale_BM_USB_Stack_v5.0/Src/example/host/hid/mouse/bm/make/host_hid_mouse_twrk70f120m/gcc_arm/MK70FN1M0_HOST_Flash_debug/obj/startup_MK70FN1M012.o
PIT0_ISR                                          C:/Freescale_BM_USB_Stack_v5.0/Src/example/host/hid/mouse/bm/make/host_hid_mouse_twrk70f120m/gcc_arm/MK70FN1M0_HOST_Flash_debug/obj/soc_isr.o
PIT1_ISR                                          C:/Freescale_BM_USB_Stack_v5.0/Src/example/host/hid/mouse/bm/make/host_hid_mouse_twrk70f120m/gcc_arm/MK70FN1M0_HOST_Flash_debug/obj/soc_isr.o
PIT2_IRQHandler                                   C:/Freescale_BM_USB_Stack_v5.0/Src/example/host/hid/mouse/bm/make/host_hid_mouse_twrk70f120m/gcc_arm/MK70FN1M0_HOST_Flash_debug/obj/startup_MK70FN1M012.o
PIT3_IRQHandler                                   C:/Freescale_BM_USB_Stack_v5.0/Src/example/host/hid/mouse/bm/make/host_hid_mouse_twrk70f120m/gcc_arm/MK70FN1M0_HOST_Flash_debug/obj/startup_MK70FN1M012.o
POLL_init                                         C:/Freescale_BM_USB_Stack_v5.0/Src/example/host/hid/mouse/bm/make/host_hid_mouse_twrk70f120m/gcc_arm/MK70FN1M0_HOST_Flash_debug/obj/poll.o
                                                  C:/Freescale_BM_USB_Stack_v5.0/Src/example/host/hid/mouse/bm/make/host_hid_mouse_twrk70f120m/gcc_arm/MK70FN1M0_HOST_Flash_debug/obj/main_kinetis.o
POLL_register                                     C:/Freescale_BM_USB_Stack_v5.0/Src/example/host/hid/mouse/bm/make/host_hid_mouse_twrk70f120m/gcc_arm/MK70FN1M0_HOST_Flash_debug/obj/poll.o
                                                  C:/Freescale_BM_USB_Stack_v5.0/Src/output/twrk70f120m.gcc_arm/debug/usbh/bm/usbh.a(adapter_bm.o)
POLL_unregister                                   C:/Freescale_BM_USB_Stack_v5.0/Src/example/host/hid/mouse/bm/make/host_hid_mouse_twrk70f120m/gcc_arm/MK70FN1M0_HOST_Flash_debug/obj/poll.o
                                                  C:/Freescale_BM_USB_Stack_v5.0/Src/output/twrk70f120m.gcc_arm/debug/usbh/bm/usbh.a(adapter_bm.o)
PORTA_IRQHandler                                  C:/Freescale_BM_USB_Stack_v5.0/Src/example/host/hid/mouse/bm/make/host_hid_mouse_twrk70f120m/gcc_arm/MK70FN1M0_HOST_Flash_debug/obj/startup_MK70FN1M012.o
PORTB_IRQHandler                                  C:/Freescale_BM_USB_Stack_v5.0/Src/example/host/hid/mouse/bm/make/host_hid_mouse_twrk70f120m/gcc_arm/MK70FN1M0_HOST_Flash_debug/obj/startup_MK70FN1M012.o
PORTB_ISR                                         C:/Freescale_BM_USB_Stack_v5.0/Src/example/host/hid/mouse/bm/make/host_hid_mouse_twrk70f120m/gcc_arm/MK70FN1M0_HOST_Flash_debug/obj/soc_isr.o
PORTC_IRQHandler                                  C:/Freescale_BM_USB_Stack_v5.0/Src/example/host/hid/mouse/bm/make/host_hid_mouse_twrk70f120m/gcc_arm/MK70FN1M0_HOST_Flash_debug/obj/startup_MK70FN1M012.o
PORTD_IRQHandler                                  C:/Freescale_BM_USB_Stack_v5.0/Src/example/host/hid/mouse/bm/make/host_hid_mouse_twrk70f120m/gcc_arm/MK70FN1M0_HOST_Flash_debug/obj/startup_MK70FN1M012.o
PORTE_IRQHandler                                  C:/Freescale_BM_USB_Stack_v5.0/Src/example/host/hid/mouse/bm/make/host_hid_mouse_twrk70f120m/gcc_arm/MK70FN1M0_HOST_Flash_debug/obj/startup_MK70FN1M012.o
PendSV_Handler                                    C:/Freescale_BM_USB_Stack_v5.0/Src/example/host/hid/mouse/bm/make/host_hid_mouse_twrk70f120m/gcc_arm/MK70FN1M0_HOST_Flash_debug/obj/startup_MK70FN1M012.o
Poll                                              C:/Freescale_BM_USB_Stack_v5.0/Src/example/host/hid/mouse/bm/make/host_hid_mouse_twrk70f120m/gcc_arm/MK70FN1M0_HOST_Flash_debug/obj/poll.o
                                                  C:/Freescale_BM_USB_Stack_v5.0/Src/example/host/hid/mouse/bm/make/host_hid_mouse_twrk70f120m/gcc_arm/MK70FN1M0_HOST_Flash_debug/obj/main_kinetis.o
RNG_IRQHandler                                    C:/Freescale_BM_USB_Stack_v5.0/Src/example/host/hid/mouse/bm/make/host_hid_mouse_twrk70f120m/gcc_arm/MK70FN1M0_HOST_Flash_debug/obj/startup_MK70FN1M012.o
RTC_IRQHandler                                    C:/Freescale_BM_USB_Stack_v5.0/Src/example/host/hid/mouse/bm/make/host_hid_mouse_twrk70f120m/gcc_arm/MK70FN1M0_HOST_Flash_debug/obj/startup_MK70FN1M012.o
RTC_Seconds_IRQHandler                            C:/Freescale_BM_USB_Stack_v5.0/Src/example/host/hid/mouse/bm/make/host_hid_mouse_twrk70f120m/gcc_arm/MK70FN1M0_HOST_Flash_debug/obj/startup_MK70FN1M012.o
Read_Collision_IRQHandler                         C:/Freescale_BM_USB_Stack_v5.0/Src/example/host/hid/mouse/bm/make/host_hid_mouse_twrk70f120m/gcc_arm/MK70FN1M0_HOST_Flash_debug/obj/startup_MK70FN1M012.o
RemoveTimerQ                                      C:/Freescale_BM_USB_Stack_v5.0/Src/example/host/hid/mouse/bm/make/host_hid_mouse_twrk70f120m/gcc_arm/MK70FN1M0_HOST_Flash_debug/obj/rtc_kinetis.o
Reserved101_IRQHandler                            C:/Freescale_BM_USB_Stack_v5.0/Src/example/host/hid/mouse/bm/make/host_hid_mouse_twrk70f120m/gcc_arm/MK70FN1M0_HOST_Flash_debug/obj/startup_MK70FN1M012.o
Reset_Handler                                     C:/Freescale_BM_USB_Stack_v5.0/Src/example/host/hid/mouse/bm/make/host_hid_mouse_twrk70f120m/gcc_arm/MK70FN1M0_HOST_Flash_debug/obj/startup_MK70FN1M012.o
SDHC_IRQHandler                                   C:/Freescale_BM_USB_Stack_v5.0/Src/example/host/hid/mouse/bm/make/host_hid_mouse_twrk70f120m/gcc_arm/MK70FN1M0_HOST_Flash_debug/obj/startup_MK70FN1M012.o
SPI0_IRQHandler                                   C:/Freescale_BM_USB_Stack_v5.0/Src/example/host/hid/mouse/bm/make/host_hid_mouse_twrk70f120m/gcc_arm/MK70FN1M0_HOST_Flash_debug/obj/startup_MK70FN1M012.o
SPI1_IRQHandler                                   C:/Freescale_BM_USB_Stack_v5.0/Src/example/host/hid/mouse/bm/make/host_hid_mouse_twrk70f120m/gcc_arm/MK70FN1M0_HOST_Flash_debug/obj/startup_MK70FN1M012.o
SPI2_IRQHandler                                   C:/Freescale_BM_USB_Stack_v5.0/Src/example/host/hid/mouse/bm/make/host_hid_mouse_twrk70f120m/gcc_arm/MK70FN1M0_HOST_Flash_debug/obj/startup_MK70FN1M012.o
SVC_Handler                                       C:/Freescale_BM_USB_Stack_v5.0/Src/example/host/hid/mouse/bm/make/host_hid_mouse_twrk70f120m/gcc_arm/MK70FN1M0_HOST_Flash_debug/obj/startup_MK70FN1M012.o
SYS_Init                                          C:/Freescale_BM_USB_Stack_v5.0/Src/example/host/hid/mouse/bm/make/host_hid_mouse_twrk70f120m/gcc_arm/MK70FN1M0_HOST_Flash_debug/obj/soc_init.o
                                                  C:/Freescale_BM_USB_Stack_v5.0/Src/example/host/hid/mouse/bm/make/host_hid_mouse_twrk70f120m/gcc_arm/MK70FN1M0_HOST_Flash_debug/obj/main_kinetis.o
Software_IRQHandler                               C:/Freescale_BM_USB_Stack_v5.0/Src/example/host/hid/mouse/bm/make/host_hid_mouse_twrk70f120m/gcc_arm/MK70FN1M0_HOST_Flash_debug/obj/startup_MK70FN1M012.o
SysTick_Handler                                   C:/Freescale_BM_USB_Stack_v5.0/Src/example/host/hid/mouse/bm/make/host_hid_mouse_twrk70f120m/gcc_arm/MK70FN1M0_HOST_Flash_debug/obj/startup_MK70FN1M012.o
SystemCoreClockUpdate                             C:/Freescale_BM_USB_Stack_v5.0/Src/example/host/hid/mouse/bm/make/host_hid_mouse_twrk70f120m/gcc_arm/MK70FN1M0_HOST_Flash_debug/obj/system_MK70FN1M012.o
SystemInit                                        C:/Freescale_BM_USB_Stack_v5.0/Src/example/host/hid/mouse/bm/make/host_hid_mouse_twrk70f120m/gcc_arm/MK70FN1M0_HOST_Flash_debug/obj/system_MK70FN1M012.o
                                                  C:/Freescale_BM_USB_Stack_v5.0/Src/example/host/hid/mouse/bm/make/host_hid_mouse_twrk70f120m/gcc_arm/MK70FN1M0_HOST_Flash_debug/obj/startup_MK70FN1M012.o
                                                  C:/Freescale_BM_USB_Stack_v5.0/Src/example/host/hid/mouse/bm/make/host_hid_mouse_twrk70f120m/gcc_arm/MK70FN1M0_HOST_Flash_debug/obj/startup.o
TSI_IRQHandler                                    C:/Freescale_BM_USB_Stack_v5.0/Src/example/host/hid/mouse/bm/make/host_hid_mouse_twrk70f120m/gcc_arm/MK70FN1M0_HOST_Flash_debug/obj/startup_MK70FN1M012.o
Tamper_IRQHandler                                 C:/Freescale_BM_USB_Stack_v5.0/Src/example/host/hid/mouse/bm/make/host_hid_mouse_twrk70f120m/gcc_arm/MK70FN1M0_HOST_Flash_debug/obj/startup_MK70FN1M012.o
TimerQInitialize                                  C:/Freescale_BM_USB_Stack_v5.0/Src/example/host/hid/mouse/bm/make/host_hid_mouse_twrk70f120m/gcc_arm/MK70FN1M0_HOST_Flash_debug/obj/rtc_kinetis.o
                                                  C:/Freescale_BM_USB_Stack_v5.0/Src/example/host/hid/mouse/bm/make/host_hid_mouse_twrk70f120m/gcc_arm/MK70FN1M0_HOST_Flash_debug/obj/main_kinetis.o
UART0_ERR_IRQHandler                              C:/Freescale_BM_USB_Stack_v5.0/Src/example/host/hid/mouse/bm/make/host_hid_mouse_twrk70f120m/gcc_arm/MK70FN1M0_HOST_Flash_debug/obj/startup_MK70FN1M012.o
UART0_IRQHandler                                  C:/Freescale_BM_USB_Stack_v5.0/Src/example/host/hid/mouse/bm/make/host_hid_mouse_twrk70f120m/gcc_arm/MK70FN1M0_HOST_Flash_debug/obj/startup_MK70FN1M012.o
UART0_LON_sources                                 C:/Freescale_BM_USB_Stack_v5.0/Src/example/host/hid/mouse/bm/make/host_hid_mouse_twrk70f120m/gcc_arm/MK70FN1M0_HOST_Flash_debug/obj/startup_MK70FN1M012.o
UART1_ERR_IRQHandler                              C:/Freescale_BM_USB_Stack_v5.0/Src/example/host/hid/mouse/bm/make/host_hid_mouse_twrk70f120m/gcc_arm/MK70FN1M0_HOST_Flash_debug/obj/startup_MK70FN1M012.o
UART1_IRQHandler                                  C:/Freescale_BM_USB_Stack_v5.0/Src/example/host/hid/mouse/bm/make/host_hid_mouse_twrk70f120m/gcc_arm/MK70FN1M0_HOST_Flash_debug/obj/startup_MK70FN1M012.o
UART2_ERR_IRQHandler                              C:/Freescale_BM_USB_Stack_v5.0/Src/example/host/hid/mouse/bm/make/host_hid_mouse_twrk70f120m/gcc_arm/MK70FN1M0_HOST_Flash_debug/obj/startup_MK70FN1M012.o
UART2_IRQHandler                                  C:/Freescale_BM_USB_Stack_v5.0/Src/example/host/hid/mouse/bm/make/host_hid_mouse_twrk70f120m/gcc_arm/MK70FN1M0_HOST_Flash_debug/obj/startup_MK70FN1M012.o
UART2_ISR                                         C:/Freescale_BM_USB_Stack_v5.0/Src/example/host/hid/mouse/bm/make/host_hid_mouse_twrk70f120m/gcc_arm/MK70FN1M0_HOST_Flash_debug/obj/soc_isr.o
                                                  C:/Freescale_BM_USB_Stack_v5.0/Src/example/host/hid/mouse/bm/make/host_hid_mouse_twrk70f120m/gcc_arm/MK70FN1M0_HOST_Flash_debug/obj/startup_MK70FN1M012.o
UART3_ERR_IRQHandler                              C:/Freescale_BM_USB_Stack_v5.0/Src/example/host/hid/mouse/bm/make/host_hid_mouse_twrk70f120m/gcc_arm/MK70FN1M0_HOST_Flash_debug/obj/startup_MK70FN1M012.o
UART3_IRQHandler                                  C:/Freescale_BM_USB_Stack_v5.0/Src/example/host/hid/mouse/bm/make/host_hid_mouse_twrk70f120m/gcc_arm/MK70FN1M0_HOST_Flash_debug/obj/startup_MK70FN1M012.o
UART4_ERR_IRQHandler                              C:/Freescale_BM_USB_Stack_v5.0/Src/example/host/hid/mouse/bm/make/host_hid_mouse_twrk70f120m/gcc_arm/MK70FN1M0_HOST_Flash_debug/obj/startup_MK70FN1M012.o
UART4_IRQHandler                                  C:/Freescale_BM_USB_Stack_v5.0/Src/example/host/hid/mouse/bm/make/host_hid_mouse_twrk70f120m/gcc_arm/MK70FN1M0_HOST_Flash_debug/obj/startup_MK70FN1M012.o
UART5_ERR_IRQHandler                              C:/Freescale_BM_USB_Stack_v5.0/Src/example/host/hid/mouse/bm/make/host_hid_mouse_twrk70f120m/gcc_arm/MK70FN1M0_HOST_Flash_debug/obj/startup_MK70FN1M012.o
UART5_IRQHandler                                  C:/Freescale_BM_USB_Stack_v5.0/Src/example/host/hid/mouse/bm/make/host_hid_mouse_twrk70f120m/gcc_arm/MK70FN1M0_HOST_Flash_debug/obj/startup_MK70FN1M012.o
USBHS_IRQHandler                                  C:/Freescale_BM_USB_Stack_v5.0/Src/example/host/hid/mouse/bm/make/host_hid_mouse_twrk70f120m/gcc_arm/MK70FN1M0_HOST_Flash_debug/obj/startup_MK70FN1M012.o
USBHS_ISR                                         C:/Freescale_BM_USB_Stack_v5.0/Src/example/host/hid/mouse/bm/make/host_hid_mouse_twrk70f120m/gcc_arm/MK70FN1M0_HOST_Flash_debug/obj/soc_isr.o
                                                  C:/Freescale_BM_USB_Stack_v5.0/Src/example/host/hid/mouse/bm/make/host_hid_mouse_twrk70f120m/gcc_arm/MK70FN1M0_HOST_Flash_debug/obj/startup_MK70FN1M012.o
USB_CD_IRQHandler                                 C:/Freescale_BM_USB_Stack_v5.0/Src/example/host/hid/mouse/bm/make/host_hid_mouse_twrk70f120m/gcc_arm/MK70FN1M0_HOST_Flash_debug/obj/startup_MK70FN1M012.o
USB_ISR                                           C:/Freescale_BM_USB_Stack_v5.0/Src/example/host/hid/mouse/bm/make/host_hid_mouse_twrk70f120m/gcc_arm/MK70FN1M0_HOST_Flash_debug/obj/soc_isr.o
USB_log_error                                     C:/Freescale_BM_USB_Stack_v5.0/Src/output/twrk70f120m.gcc_arm/debug/usbh/bm/usbh.a(usb_host.o)
                                                  C:/Freescale_BM_USB_Stack_v5.0/Src/output/twrk70f120m.gcc_arm/debug/usbh/bm/usbh.a(usb_host_msd_bo.o)
                                                  C:/Freescale_BM_USB_Stack_v5.0/Src/output/twrk70f120m.gcc_arm/debug/usbh/bm/usbh.a(khci.o)
                                                  C:/Freescale_BM_USB_Stack_v5.0/Src/output/twrk70f120m.gcc_arm/debug/usbh/bm/usbh.a(ehci_host.o)
                                                  C:/Freescale_BM_USB_Stack_v5.0/Src/output/twrk70f120m.gcc_arm/debug/usbh/bm/usbh.a(usb_host_dev_mng.o)
                                                  C:/Freescale_BM_USB_Stack_v5.0/Src/output/twrk70f120m.gcc_arm/debug/usbh/bm/usbh.a(usb_host_common.o)
                                                  C:/Freescale_BM_USB_Stack_v5.0/Src/output/twrk70f120m.gcc_arm/debug/usbh/bm/usbh.a(usb_host_ch9.o)
UsageFault_Handler                                C:/Freescale_BM_USB_Stack_v5.0/Src/example/host/hid/mouse/bm/make/host_hid_mouse_twrk70f120m/gcc_arm/MK70FN1M0_HOST_Flash_debug/obj/startup_MK70FN1M012.o
Watchdog_IRQHandler                               C:/Freescale_BM_USB_Stack_v5.0/Src/example/host/hid/mouse/bm/make/host_hid_mouse_twrk70f120m/gcc_arm/MK70FN1M0_HOST_Flash_debug/obj/startup_MK70FN1M012.o
Watchdog_Reset                                    C:/Freescale_BM_USB_Stack_v5.0/Src/example/host/hid/mouse/bm/make/host_hid_mouse_twrk70f120m/gcc_arm/MK70FN1M0_HOST_Flash_debug/obj/wdt_kinetis.o
__DATA_END                                        C:/Freescale_BM_USB_Stack_v5.0/Src/example/host/hid/mouse/bm/make/host_hid_mouse_twrk70f120m/gcc_arm/MK70FN1M0_HOST_Flash_debug/obj/startup.o
__DATA_RAM                                        C:/Freescale_BM_USB_Stack_v5.0/Src/example/host/hid/mouse/bm/make/host_hid_mouse_twrk70f120m/gcc_arm/MK70FN1M0_HOST_Flash_debug/obj/startup.o
__DATA_ROM                                        C:/Freescale_BM_USB_Stack_v5.0/Src/example/host/hid/mouse/bm/make/host_hid_mouse_twrk70f120m/gcc_arm/MK70FN1M0_HOST_Flash_debug/obj/startup.o
__END_BSS                                         C:/Freescale_BM_USB_Stack_v5.0/Src/example/host/hid/mouse/bm/make/host_hid_mouse_twrk70f120m/gcc_arm/MK70FN1M0_HOST_Flash_debug/obj/startup.o
__HeapBase                                        C:/Freescale_BM_USB_Stack_v5.0/Src/example/host/hid/mouse/bm/make/host_hid_mouse_twrk70f120m/gcc_arm/MK70FN1M0_HOST_Flash_debug/obj/startup_MK70FN1M012.o
__HeapLimit                                       C:/Freescale_BM_USB_Stack_v5.0/Src/example/host/hid/mouse/bm/make/host_hid_mouse_twrk70f120m/gcc_arm/MK70FN1M0_HOST_Flash_debug/obj/startup_MK70FN1M012.o
__START_BSS                                       C:/Freescale_BM_USB_Stack_v5.0/Src/example/host/hid/mouse/bm/make/host_hid_mouse_twrk70f120m/gcc_arm/MK70FN1M0_HOST_Flash_debug/obj/startup.o
__StackLimit                                      C:/Freescale_BM_USB_Stack_v5.0/Src/example/host/hid/mouse/bm/make/host_hid_mouse_twrk70f120m/gcc_arm/MK70FN1M0_HOST_Flash_debug/obj/startup_MK70FN1M012.o
__StackTop                                        C:/Freescale_BM_USB_Stack_v5.0/Src/example/host/hid/mouse/bm/make/host_hid_mouse_twrk70f120m/gcc_arm/MK70FN1M0_HOST_Flash_debug/obj/startup_MK70FN1M012.o
__VECTOR_RAM                                      C:/Freescale_BM_USB_Stack_v5.0/Src/example/host/hid/mouse/bm/make/host_hid_mouse_twrk70f120m/gcc_arm/MK70FN1M0_HOST_Flash_debug/obj/startup.o
__VECTOR_TABLE                                    C:/Freescale_BM_USB_Stack_v5.0/Src/example/host/hid/mouse/bm/make/host_hid_mouse_twrk70f120m/gcc_arm/MK70FN1M0_HOST_Flash_debug/obj/startup.o
__data_end__                                      C:/Freescale_BM_USB_Stack_v5.0/Src/example/host/hid/mouse/bm/make/host_hid_mouse_twrk70f120m/gcc_arm/MK70FN1M0_HOST_Flash_debug/obj/startup_MK70FN1M012.o
__data_start__                                    C:/Freescale_BM_USB_Stack_v5.0/Src/example/host/hid/mouse/bm/make/host_hid_mouse_twrk70f120m/gcc_arm/MK70FN1M0_HOST_Flash_debug/obj/startup_MK70FN1M012.o
__etext                                           C:/Freescale_BM_USB_Stack_v5.0/Src/example/host/hid/mouse/bm/make/host_hid_mouse_twrk70f120m/gcc_arm/MK70FN1M0_HOST_Flash_debug/obj/startup_MK70FN1M012.o
__isr_vector                                      C:/Freescale_BM_USB_Stack_v5.0/Src/example/host/hid/mouse/bm/make/host_hid_mouse_twrk70f120m/gcc_arm/MK70FN1M0_HOST_Flash_debug/obj/startup_MK70FN1M012.o
__malloc_av_                                      C:/FREESC~1/CWMCUV~1.7/CROSS_~1/ARM-NO~1/arm-none-eabi/lib/armv7e-m/softfp/libc.a(lib_a-mallocr.o)
                                                  C:/FREESC~1/CWMCUV~1.7/CROSS_~1/ARM-NO~1/arm-none-eabi/lib/armv7e-m/softfp/libc.a(lib_a-freer.o)
__malloc_current_mallinfo                         C:/FREESC~1/CWMCUV~1.7/CROSS_~1/ARM-NO~1/arm-none-eabi/lib/armv7e-m/softfp/libc.a(lib_a-mallocr.o)
                                                  C:/FREESC~1/CWMCUV~1.7/CROSS_~1/ARM-NO~1/arm-none-eabi/lib/armv7e-m/softfp/libc.a(lib_a-freer.o)
__malloc_lock                                     C:/FREESC~1/CWMCUV~1.7/CROSS_~1/ARM-NO~1/arm-none-eabi/lib/armv7e-m/softfp/libc.a(lib_a-mlock.o)
                                                  C:/FREESC~1/CWMCUV~1.7/CROSS_~1/ARM-NO~1/arm-none-eabi/lib/armv7e-m/softfp/libc.a(lib_a-freer.o)
                                                  C:/FREESC~1/CWMCUV~1.7/CROSS_~1/ARM-NO~1/arm-none-eabi/lib/armv7e-m/softfp/libc.a(lib_a-mallocr.o)
__malloc_max_sbrked_mem                           C:/FREESC~1/CWMCUV~1.7/CROSS_~1/ARM-NO~1/arm-none-eabi/lib/armv7e-m/softfp/libc.a(lib_a-mallocr.o)
__malloc_max_total_mem                            C:/FREESC~1/CWMCUV~1.7/CROSS_~1/ARM-NO~1/arm-none-eabi/lib/armv7e-m/softfp/libc.a(lib_a-mallocr.o)
__malloc_sbrk_base                                C:/FREESC~1/CWMCUV~1.7/CROSS_~1/ARM-NO~1/arm-none-eabi/lib/armv7e-m/softfp/libc.a(lib_a-mallocr.o)
                                                  C:/FREESC~1/CWMCUV~1.7/CROSS_~1/ARM-NO~1/arm-none-eabi/lib/armv7e-m/softfp/libc.a(lib_a-freer.o)
__malloc_top_pad                                  C:/FREESC~1/CWMCUV~1.7/CROSS_~1/ARM-NO~1/arm-none-eabi/lib/armv7e-m/softfp/libc.a(lib_a-mallocr.o)
                                                  C:/FREESC~1/CWMCUV~1.7/CROSS_~1/ARM-NO~1/arm-none-eabi/lib/armv7e-m/softfp/libc.a(lib_a-freer.o)
__malloc_trim_threshold                           C:/FREESC~1/CWMCUV~1.7/CROSS_~1/ARM-NO~1/arm-none-eabi/lib/armv7e-m/softfp/libc.a(lib_a-mallocr.o)
                                                  C:/FREESC~1/CWMCUV~1.7/CROSS_~1/ARM-NO~1/arm-none-eabi/lib/armv7e-m/softfp/libc.a(lib_a-freer.o)
__malloc_unlock                                   C:/FREESC~1/CWMCUV~1.7/CROSS_~1/ARM-NO~1/arm-none-eabi/lib/armv7e-m/softfp/libc.a(lib_a-mlock.o)
                                                  C:/FREESC~1/CWMCUV~1.7/CROSS_~1/ARM-NO~1/arm-none-eabi/lib/armv7e-m/softfp/libc.a(lib_a-freer.o)
                                                  C:/FREESC~1/CWMCUV~1.7/CROSS_~1/ARM-NO~1/arm-none-eabi/lib/armv7e-m/softfp/libc.a(lib_a-mallocr.o)
_bm_event_clear                                   C:/Freescale_BM_USB_Stack_v5.0/Src/example/host/hid/mouse/bm/make/host_hid_mouse_twrk70f120m/gcc_arm/MK70FN1M0_HOST_Flash_debug/obj/bmevent.o
                                                  C:/Freescale_BM_USB_Stack_v5.0/Src/output/twrk70f120m.gcc_arm/debug/usbh/bm/usbh.a(usb_host_cdc_intf.o)
                                                  C:/Freescale_BM_USB_Stack_v5.0/Src/output/twrk70f120m.gcc_arm/debug/usbh/bm/usbh.a(khci.o)
                                                  C:/Freescale_BM_USB_Stack_v5.0/Src/output/twrk70f120m.gcc_arm/debug/usbh/bm/usbh.a(ehci_host.o)
                                                  C:/Freescale_BM_USB_Stack_v5.0/Src/example/host/hid/mouse/bm/make/host_hid_mouse_twrk70f120m/gcc_arm/MK70FN1M0_HOST_Flash_debug/obj/hidmouse.o
_bm_event_init                                    C:/Freescale_BM_USB_Stack_v5.0/Src/example/host/hid/mouse/bm/make/host_hid_mouse_twrk70f120m/gcc_arm/MK70FN1M0_HOST_Flash_debug/obj/bmevent.o
                                                  C:/Freescale_BM_USB_Stack_v5.0/Src/output/twrk70f120m.gcc_arm/debug/usbh/bm/usbh.a(adapter_bm.o)
_bm_event_set                                     C:/Freescale_BM_USB_Stack_v5.0/Src/example/host/hid/mouse/bm/make/host_hid_mouse_twrk70f120m/gcc_arm/MK70FN1M0_HOST_Flash_debug/obj/bmevent.o
                                                  C:/Freescale_BM_USB_Stack_v5.0/Src/output/twrk70f120m.gcc_arm/debug/usbh/bm/usbh.a(usb_host_cdc_intf.o)
                                                  C:/Freescale_BM_USB_Stack_v5.0/Src/output/twrk70f120m.gcc_arm/debug/usbh/bm/usbh.a(khci.o)
                                                  C:/Freescale_BM_USB_Stack_v5.0/Src/output/twrk70f120m.gcc_arm/debug/usbh/bm/usbh.a(ehci_host.o)
                                                  C:/Freescale_BM_USB_Stack_v5.0/Src/example/host/hid/mouse/bm/make/host_hid_mouse_twrk70f120m/gcc_arm/MK70FN1M0_HOST_Flash_debug/obj/hidmouse.o
_bm_event_wait_ticks                              C:/Freescale_BM_USB_Stack_v5.0/Src/example/host/hid/mouse/bm/make/host_hid_mouse_twrk70f120m/gcc_arm/MK70FN1M0_HOST_Flash_debug/obj/bmevent.o
                                                  C:/Freescale_BM_USB_Stack_v5.0/Src/output/twrk70f120m.gcc_arm/debug/usbh/bm/usbh.a(adapter_bm.o)
_bm_msgq_deinit                                   C:/Freescale_BM_USB_Stack_v5.0/Src/example/host/hid/mouse/bm/make/host_hid_mouse_twrk70f120m/gcc_arm/MK70FN1M0_HOST_Flash_debug/obj/bmmsgq.o
                                                  C:/Freescale_BM_USB_Stack_v5.0/Src/output/twrk70f120m.gcc_arm/debug/usbh/bm/usbh.a(khci.o)
_bm_msgq_init                                     C:/Freescale_BM_USB_Stack_v5.0/Src/example/host/hid/mouse/bm/make/host_hid_mouse_twrk70f120m/gcc_arm/MK70FN1M0_HOST_Flash_debug/obj/bmmsgq.o
                                                  C:/Freescale_BM_USB_Stack_v5.0/Src/output/twrk70f120m.gcc_arm/debug/usbh/bm/usbh.a(khci.o)
_bm_msgq_receive                                  C:/Freescale_BM_USB_Stack_v5.0/Src/example/host/hid/mouse/bm/make/host_hid_mouse_twrk70f120m/gcc_arm/MK70FN1M0_HOST_Flash_debug/obj/bmmsgq.o
                                                  C:/Freescale_BM_USB_Stack_v5.0/Src/output/twrk70f120m.gcc_arm/debug/usbh/bm/usbh.a(adapter_bm.o)
_bm_msgq_send                                     C:/Freescale_BM_USB_Stack_v5.0/Src/example/host/hid/mouse/bm/make/host_hid_mouse_twrk70f120m/gcc_arm/MK70FN1M0_HOST_Flash_debug/obj/bmmsgq.o
                                                  C:/Freescale_BM_USB_Stack_v5.0/Src/output/twrk70f120m.gcc_arm/debug/usbh/bm/usbh.a(adapter_bm.o)
_bm_sem_create                                    C:/Freescale_BM_USB_Stack_v5.0/Src/example/host/hid/mouse/bm/make/host_hid_mouse_twrk70f120m/gcc_arm/MK70FN1M0_HOST_Flash_debug/obj/bmsem.o
                                                  C:/Freescale_BM_USB_Stack_v5.0/Src/output/twrk70f120m.gcc_arm/debug/usbh/bm/usbh.a(adapter_bm.o)
_bm_sem_destroy                                   C:/Freescale_BM_USB_Stack_v5.0/Src/example/host/hid/mouse/bm/make/host_hid_mouse_twrk70f120m/gcc_arm/MK70FN1M0_HOST_Flash_debug/obj/bmsem.o
                                                  C:/Freescale_BM_USB_Stack_v5.0/Src/output/twrk70f120m.gcc_arm/debug/usbh/bm/usbh.a(adapter_bm.o)
_bm_sem_post                                      C:/Freescale_BM_USB_Stack_v5.0/Src/example/host/hid/mouse/bm/make/host_hid_mouse_twrk70f120m/gcc_arm/MK70FN1M0_HOST_Flash_debug/obj/bmsem.o
                                                  C:/Freescale_BM_USB_Stack_v5.0/Src/output/twrk70f120m.gcc_arm/debug/usbh/bm/usbh.a(usb_host_hub_sm.o)
_bm_sem_wait                                      C:/Freescale_BM_USB_Stack_v5.0/Src/example/host/hid/mouse/bm/make/host_hid_mouse_twrk70f120m/gcc_arm/MK70FN1M0_HOST_Flash_debug/obj/bmsem.o
_bm_sem_wait_ticks                                C:/Freescale_BM_USB_Stack_v5.0/Src/example/host/hid/mouse/bm/make/host_hid_mouse_twrk70f120m/gcc_arm/MK70FN1M0_HOST_Flash_debug/obj/bmsem.o
                                                  C:/Freescale_BM_USB_Stack_v5.0/Src/output/twrk70f120m.gcc_arm/debug/usbh/bm/usbh.a(adapter_bm.o)
_bsp_get_serial_base_address                      C:/Freescale_BM_USB_Stack_v5.0/Src/example/host/hid/mouse/bm/make/host_hid_mouse_twrk70f120m/gcc_arm/MK70FN1M0_HOST_Flash_debug/obj/soc_sci.o
                                                  C:/Freescale_BM_USB_Stack_v5.0/Src/example/host/hid/mouse/bm/make/host_hid_mouse_twrk70f120m/gcc_arm/MK70FN1M0_HOST_Flash_debug/obj/sci.o
_bsp_sci1_init                                    C:/Freescale_BM_USB_Stack_v5.0/Src/example/host/hid/mouse/bm/make/host_hid_mouse_twrk70f120m/gcc_arm/MK70FN1M0_HOST_Flash_debug/obj/soc_sci.o
_free_r                                           C:/FREESC~1/CWMCUV~1.7/CROSS_~1/ARM-NO~1/arm-none-eabi/lib/armv7e-m/softfp/libc.a(lib_a-freer.o)
                                                  C:/FREESC~1/CWMCUV~1.7/CROSS_~1/ARM-NO~1/arm-none-eabi/lib/armv7e-m/softfp/libc.a(lib_a-reent.o)
                                                  C:/FREESC~1/CWMCUV~1.7/CROSS_~1/ARM-NO~1/arm-none-eabi/lib/armv7e-m/softfp/libc.a(lib_a-mallocr.o)
                                                  C:/FREESC~1/CWMCUV~1.7/CROSS_~1/ARM-NO~1/arm-none-eabi/lib/armv7e-m/softfp/libc.a(lib_a-malloc.o)
_get_roundup_pow2                                 C:/Freescale_BM_USB_Stack_v5.0/Src/output/twrk70f120m.gcc_arm/debug/usbh/bm/usbh.a(ehci_host.o)
_global_impure_ptr                                C:/FREESC~1/CWMCUV~1.7/CROSS_~1/ARM-NO~1/arm-none-eabi/lib/armv7e-m/softfp/libc.a(lib_a-impure.o)
_impure_ptr                                       C:/FREESC~1/CWMCUV~1.7/CROSS_~1/ARM-NO~1/arm-none-eabi/lib/armv7e-m/softfp/libc.a(lib_a-impure.o)
                                                  C:/FREESC~1/CWMCUV~1.7/CROSS_~1/ARM-NO~1/arm-none-eabi/lib/armv7e-m/softfp/libc.a(lib_a-reent.o)
                                                  C:/FREESC~1/CWMCUV~1.7/CROSS_~1/ARM-NO~1/arm-none-eabi/lib/armv7e-m/softfp/libc.a(lib_a-malloc.o)
_malloc_r                                         C:/FREESC~1/CWMCUV~1.7/CROSS_~1/ARM-NO~1/arm-none-eabi/lib/armv7e-m/softfp/libc.a(lib_a-mallocr.o)
                                                  C:/FREESC~1/CWMCUV~1.7/CROSS_~1/ARM-NO~1/arm-none-eabi/lib/armv7e-m/softfp/libc.a(lib_a-malloc.o)
_malloc_trim_r                                    C:/FREESC~1/CWMCUV~1.7/CROSS_~1/ARM-NO~1/arm-none-eabi/lib/armv7e-m/softfp/libc.a(lib_a-freer.o)
_reclaim_reent                                    C:/FREESC~1/CWMCUV~1.7/CROSS_~1/ARM-NO~1/arm-none-eabi/lib/armv7e-m/softfp/libc.a(lib_a-reent.o)
_sbrk                                             C:/FREESC~1/CWMCUV~1.7/CROSS_~1/ARM-NO~1/arm-none-eabi/lib/armv7e-m/softfp/libnosys.a(sbrk.o)
                                                  C:/FREESC~1/CWMCUV~1.7/CROSS_~1/ARM-NO~1/arm-none-eabi/lib/armv7e-m/softfp/libc.a(lib_a-sbrkr.o)
_sbrk_r                                           C:/FREESC~1/CWMCUV~1.7/CROSS_~1/ARM-NO~1/arm-none-eabi/lib/armv7e-m/softfp/libc.a(lib_a-sbrkr.o)
                                                  C:/FREESC~1/CWMCUV~1.7/CROSS_~1/ARM-NO~1/arm-none-eabi/lib/armv7e-m/softfp/libc.a(lib_a-freer.o)
                                                  C:/FREESC~1/CWMCUV~1.7/CROSS_~1/ARM-NO~1/arm-none-eabi/lib/armv7e-m/softfp/libc.a(lib_a-mallocr.o)
_usb_ehci_add_ITD                                 C:/Freescale_BM_USB_Stack_v5.0/Src/output/twrk70f120m.gcc_arm/debug/usbh/bm/usbh.a(ehci_host.o)
_usb_ehci_add_SITD                                C:/Freescale_BM_USB_Stack_v5.0/Src/output/twrk70f120m.gcc_arm/debug/usbh/bm/usbh.a(ehci_host.o)
_usb_ehci_add_interrupt_xfer_to_periodic_list     C:/Freescale_BM_USB_Stack_v5.0/Src/output/twrk70f120m.gcc_arm/debug/usbh/bm/usbh.a(ehci_host.o)
_usb_ehci_add_isochronous_xfer_to_periodic_schedule_list C:/Freescale_BM_USB_Stack_v5.0/Src/output/twrk70f120m.gcc_arm/debug/usbh/bm/usbh.a(ehci_host.o)
_usb_ehci_add_xfer_to_asynch_schedule_list        C:/Freescale_BM_USB_Stack_v5.0/Src/output/twrk70f120m.gcc_arm/debug/usbh/bm/usbh.a(ehci_host.o)
_usb_ehci_allocate_bandwidth                      C:/Freescale_BM_USB_Stack_v5.0/Src/output/twrk70f120m.gcc_arm/debug/usbh/bm/usbh.a(ehci_host.o)
_usb_ehci_bus_control                             C:/Freescale_BM_USB_Stack_v5.0/Src/output/twrk70f120m.gcc_arm/debug/usbh/bm/usbh.a(ehci_host.o)
_usb_ehci_bus_resume                              C:/Freescale_BM_USB_Stack_v5.0/Src/output/twrk70f120m.gcc_arm/debug/usbh/bm/usbh.a(ehci_host.o)
_usb_ehci_bus_suspend                             C:/Freescale_BM_USB_Stack_v5.0/Src/output/twrk70f120m.gcc_arm/debug/usbh/bm/usbh.a(ehci_host.o)
_usb_ehci_calculate_uframe_tr_time                C:/Freescale_BM_USB_Stack_v5.0/Src/output/twrk70f120m.gcc_arm/debug/usbh/bm/usbh.a(ehci_host.o)
_usb_ehci_cancel_transfer                         C:/Freescale_BM_USB_Stack_v5.0/Src/output/twrk70f120m.gcc_arm/debug/usbh/bm/usbh.a(ehci_host.o)
_usb_ehci_close_interrupt_pipe                    C:/Freescale_BM_USB_Stack_v5.0/Src/output/twrk70f120m.gcc_arm/debug/usbh/bm/usbh.a(ehci_host.o)
_usb_ehci_close_isochronous_pipe                  C:/Freescale_BM_USB_Stack_v5.0/Src/output/twrk70f120m.gcc_arm/debug/usbh/bm/usbh.a(ehci_host.o)
_usb_ehci_close_pipe                              C:/Freescale_BM_USB_Stack_v5.0/Src/output/twrk70f120m.gcc_arm/debug/usbh/bm/usbh.a(ehci_host.o)
_usb_ehci_free_ITD                                C:/Freescale_BM_USB_Stack_v5.0/Src/output/twrk70f120m.gcc_arm/debug/usbh/bm/usbh.a(ehci_host.o)
_usb_ehci_free_SITD                               C:/Freescale_BM_USB_Stack_v5.0/Src/output/twrk70f120m.gcc_arm/debug/usbh/bm/usbh.a(ehci_host.o)
_usb_ehci_free_qh                                 C:/Freescale_BM_USB_Stack_v5.0/Src/output/twrk70f120m.gcc_arm/debug/usbh/bm/usbh.a(ehci_host.o)
_usb_ehci_free_qtd                                C:/Freescale_BM_USB_Stack_v5.0/Src/output/twrk70f120m.gcc_arm/debug/usbh/bm/usbh.a(ehci_host.o)
_usb_ehci_free_resources                          C:/Freescale_BM_USB_Stack_v5.0/Src/output/twrk70f120m.gcc_arm/debug/usbh/bm/usbh.a(ehci_host.o)
_usb_ehci_get_frame_number                        C:/Freescale_BM_USB_Stack_v5.0/Src/output/twrk70f120m.gcc_arm/debug/usbh/bm/usbh.a(ehci_host.o)
_usb_ehci_get_micro_frame_number                  C:/Freescale_BM_USB_Stack_v5.0/Src/output/twrk70f120m.gcc_arm/debug/usbh/bm/usbh.a(ehci_host.o)
_usb_ehci_get_qh                                  C:/Freescale_BM_USB_Stack_v5.0/Src/output/twrk70f120m.gcc_arm/debug/usbh/bm/usbh.a(ehci_host.o)
_usb_ehci_get_qtd                                 C:/Freescale_BM_USB_Stack_v5.0/Src/output/twrk70f120m.gcc_arm/debug/usbh/bm/usbh.a(ehci_host.o)
_usb_ehci_host_api_table                          C:/Freescale_BM_USB_Stack_v5.0/Src/output/twrk70f120m.gcc_arm/debug/usbh/bm/usbh.a(ehci_host.o)
                                                  C:/Freescale_BM_USB_Stack_v5.0/Src/output/twrk70f120m.gcc_arm/debug/usbh/bm/usbh.a(usb_host.o)
_usb_ehci_init                                    C:/Freescale_BM_USB_Stack_v5.0/Src/output/twrk70f120m.gcc_arm/debug/usbh/bm/usbh.a(ehci_host.o)
_usb_ehci_init_periodic_list                      C:/Freescale_BM_USB_Stack_v5.0/Src/output/twrk70f120m.gcc_arm/debug/usbh/bm/usbh.a(ehci_host.o)
_usb_ehci_init_qh                                 C:/Freescale_BM_USB_Stack_v5.0/Src/output/twrk70f120m.gcc_arm/debug/usbh/bm/usbh.a(ehci_host.o)
_usb_ehci_init_qtd                                C:/Freescale_BM_USB_Stack_v5.0/Src/output/twrk70f120m.gcc_arm/debug/usbh/bm/usbh.a(ehci_host.o)
_usb_ehci_init_qtd_link                           C:/Freescale_BM_USB_Stack_v5.0/Src/output/twrk70f120m.gcc_arm/debug/usbh/bm/usbh.a(ehci_host.o)
_usb_ehci_isr                                     C:/Freescale_BM_USB_Stack_v5.0/Src/output/twrk70f120m.gcc_arm/debug/usbh/bm/usbh.a(ehci_host.o)
_usb_ehci_link_qh_to_async_active_list            C:/Freescale_BM_USB_Stack_v5.0/Src/output/twrk70f120m.gcc_arm/debug/usbh/bm/usbh.a(ehci_host.o)
_usb_ehci_link_qtd_to_qh                          C:/Freescale_BM_USB_Stack_v5.0/Src/output/twrk70f120m.gcc_arm/debug/usbh/bm/usbh.a(ehci_host.o)
_usb_ehci_link_structure_in_periodic_list         C:/Freescale_BM_USB_Stack_v5.0/Src/output/twrk70f120m.gcc_arm/debug/usbh/bm/usbh.a(ehci_host.o)
_usb_ehci_open_pipe                               C:/Freescale_BM_USB_Stack_v5.0/Src/output/twrk70f120m.gcc_arm/debug/usbh/bm/usbh.a(ehci_host.o)
_usb_ehci_preinit                                 C:/Freescale_BM_USB_Stack_v5.0/Src/output/twrk70f120m.gcc_arm/debug/usbh/bm/usbh.a(ehci_host.o)
_usb_ehci_process_itd_tr_complete                 C:/Freescale_BM_USB_Stack_v5.0/Src/output/twrk70f120m.gcc_arm/debug/usbh/bm/usbh.a(ehci_host.o)
_usb_ehci_process_port_change                     C:/Freescale_BM_USB_Stack_v5.0/Src/output/twrk70f120m.gcc_arm/debug/usbh/bm/usbh.a(ehci_host.o)
_usb_ehci_process_qh_interrupt_tr_complete        C:/Freescale_BM_USB_Stack_v5.0/Src/output/twrk70f120m.gcc_arm/debug/usbh/bm/usbh.a(ehci_host.o)
_usb_ehci_process_qh_list_tr_complete             C:/Freescale_BM_USB_Stack_v5.0/Src/output/twrk70f120m.gcc_arm/debug/usbh/bm/usbh.a(ehci_host.o)
_usb_ehci_process_sitd_tr_complete                C:/Freescale_BM_USB_Stack_v5.0/Src/output/twrk70f120m.gcc_arm/debug/usbh/bm/usbh.a(ehci_host.o)
_usb_ehci_process_timer                           C:/Freescale_BM_USB_Stack_v5.0/Src/output/twrk70f120m.gcc_arm/debug/usbh/bm/usbh.a(ehci_host.o)
_usb_ehci_process_tr_complete                     C:/Freescale_BM_USB_Stack_v5.0/Src/output/twrk70f120m.gcc_arm/debug/usbh/bm/usbh.a(ehci_host.o)
_usb_ehci_queue_pkts                              C:/Freescale_BM_USB_Stack_v5.0/Src/output/twrk70f120m.gcc_arm/debug/usbh/bm/usbh.a(ehci_host.o)
_usb_ehci_recv_data                               C:/Freescale_BM_USB_Stack_v5.0/Src/output/twrk70f120m.gcc_arm/debug/usbh/bm/usbh.a(ehci_host.o)
_usb_ehci_reset_and_enable_port                   C:/Freescale_BM_USB_Stack_v5.0/Src/output/twrk70f120m.gcc_arm/debug/usbh/bm/usbh.a(ehci_host.o)
_usb_ehci_send_data                               C:/Freescale_BM_USB_Stack_v5.0/Src/output/twrk70f120m.gcc_arm/debug/usbh/bm/usbh.a(ehci_host.o)
_usb_ehci_send_setup                              C:/Freescale_BM_USB_Stack_v5.0/Src/output/twrk70f120m.gcc_arm/debug/usbh/bm/usbh.a(ehci_host.o)
_usb_ehci_shutdown                                C:/Freescale_BM_USB_Stack_v5.0/Src/output/twrk70f120m.gcc_arm/debug/usbh/bm/usbh.a(ehci_host.o)
_usb_ehci_unlink_qh_from_async_active_list        C:/Freescale_BM_USB_Stack_v5.0/Src/output/twrk70f120m.gcc_arm/debug/usbh/bm/usbh.a(ehci_host.o)
_usb_ehci_update_active_async                     C:/Freescale_BM_USB_Stack_v5.0/Src/output/twrk70f120m.gcc_arm/debug/usbh/bm/usbh.a(ehci_host.o)
_usb_ehci_update_dev_address                      C:/Freescale_BM_USB_Stack_v5.0/Src/output/twrk70f120m.gcc_arm/debug/usbh/bm/usbh.a(ehci_host.o)
_usb_host_call_service                            C:/Freescale_BM_USB_Stack_v5.0/Src/output/twrk70f120m.gcc_arm/debug/usbh/bm/usbh.a(usb_host.o)
                                                  C:/Freescale_BM_USB_Stack_v5.0/Src/output/twrk70f120m.gcc_arm/debug/usbh/bm/usbh.a(ehci_host.o)
_usb_host_ch9_clear_feature                       C:/Freescale_BM_USB_Stack_v5.0/Src/output/twrk70f120m.gcc_arm/debug/usbh/bm/usbh.a(usb_host_ch9.o)
                                                  C:/Freescale_BM_USB_Stack_v5.0/Src/output/twrk70f120m.gcc_arm/debug/usbh/bm/usbh.a(usb_host_phdc.o)
                                                  C:/Freescale_BM_USB_Stack_v5.0/Src/output/twrk70f120m.gcc_arm/debug/usbh/bm/usbh.a(usb_host_msd_bo.o)
                                                  C:/Freescale_BM_USB_Stack_v5.0/Src/output/twrk70f120m.gcc_arm/debug/usbh/bm/usbh.a(usb_host_hid.o)
_usb_host_ch9_get_configuration                   C:/Freescale_BM_USB_Stack_v5.0/Src/output/twrk70f120m.gcc_arm/debug/usbh/bm/usbh.a(usb_host_ch9.o)
_usb_host_ch9_get_descriptor                      C:/Freescale_BM_USB_Stack_v5.0/Src/output/twrk70f120m.gcc_arm/debug/usbh/bm/usbh.a(usb_host_ch9.o)
                                                  C:/Freescale_BM_USB_Stack_v5.0/Src/output/twrk70f120m.gcc_arm/debug/usbh/bm/usbh.a(usb_host_dev_mng.o)
_usb_host_ch9_get_interface                       C:/Freescale_BM_USB_Stack_v5.0/Src/output/twrk70f120m.gcc_arm/debug/usbh/bm/usbh.a(usb_host_ch9.o)
_usb_host_ch9_get_status                          C:/Freescale_BM_USB_Stack_v5.0/Src/output/twrk70f120m.gcc_arm/debug/usbh/bm/usbh.a(usb_host_ch9.o)
_usb_host_ch9_set_address                         C:/Freescale_BM_USB_Stack_v5.0/Src/output/twrk70f120m.gcc_arm/debug/usbh/bm/usbh.a(usb_host_ch9.o)
_usb_host_ch9_set_configuration                   C:/Freescale_BM_USB_Stack_v5.0/Src/output/twrk70f120m.gcc_arm/debug/usbh/bm/usbh.a(usb_host_ch9.o)
_usb_host_ch9_set_descriptor                      C:/Freescale_BM_USB_Stack_v5.0/Src/output/twrk70f120m.gcc_arm/debug/usbh/bm/usbh.a(usb_host_ch9.o)
_usb_host_ch9_set_feature                         C:/Freescale_BM_USB_Stack_v5.0/Src/output/twrk70f120m.gcc_arm/debug/usbh/bm/usbh.a(usb_host_ch9.o)
                                                  C:/Freescale_BM_USB_Stack_v5.0/Src/output/twrk70f120m.gcc_arm/debug/usbh/bm/usbh.a(usb_host_phdc.o)
_usb_host_ch9_set_interface                       C:/Freescale_BM_USB_Stack_v5.0/Src/output/twrk70f120m.gcc_arm/debug/usbh/bm/usbh.a(usb_host_ch9.o)
                                                  C:/Freescale_BM_USB_Stack_v5.0/Src/output/twrk70f120m.gcc_arm/debug/usbh/bm/usbh.a(usb_host.o)
_usb_host_ch9_synch_frame                         C:/Freescale_BM_USB_Stack_v5.0/Src/output/twrk70f120m.gcc_arm/debug/usbh/bm/usbh.a(usb_host_ch9.o)
_usb_host_delay                                   C:/Freescale_BM_USB_Stack_v5.0/Src/output/twrk70f120m.gcc_arm/debug/usbh/bm/usbh.a(ehci_host.o)
_usb_host_link_tr                                 C:/Freescale_BM_USB_Stack_v5.0/Src/output/twrk70f120m.gcc_arm/debug/usbh/bm/usbh.a(usb_host.o)
_usb_host_process_reset_recovery_done             C:/Freescale_BM_USB_Stack_v5.0/Src/output/twrk70f120m.gcc_arm/debug/usbh/bm/usbh.a(ehci_host.o)
_usb_host_unlink_tr                               C:/Freescale_BM_USB_Stack_v5.0/Src/output/twrk70f120m.gcc_arm/debug/usbh/bm/usbh.a(usb_host.o)
                                                  C:/Freescale_BM_USB_Stack_v5.0/Src/output/twrk70f120m.gcc_arm/debug/usbh/bm/usbh.a(khci.o)
                                                  C:/Freescale_BM_USB_Stack_v5.0/Src/output/twrk70f120m.gcc_arm/debug/usbh/bm/usbh.a(ehci_host.o)
_usb_host_update_device_address_call_interface    C:/Freescale_BM_USB_Stack_v5.0/Src/output/twrk70f120m.gcc_arm/debug/usbh/bm/usbh.a(usb_host.o)
                                                  C:/Freescale_BM_USB_Stack_v5.0/Src/output/twrk70f120m.gcc_arm/debug/usbh/bm/usbh.a(usb_host_ch9.o)
_usb_host_update_max_packet_size_call_interface   C:/Freescale_BM_USB_Stack_v5.0/Src/output/twrk70f120m.gcc_arm/debug/usbh/bm/usbh.a(usb_host.o)
                                                  C:/Freescale_BM_USB_Stack_v5.0/Src/output/twrk70f120m.gcc_arm/debug/usbh/bm/usbh.a(usb_host_ch9.o)
_usb_khci_cancel_pipe                             C:/Freescale_BM_USB_Stack_v5.0/Src/output/twrk70f120m.gcc_arm/debug/usbh/bm/usbh.a(khci.o)
_usb_khci_close_pipe                              C:/Freescale_BM_USB_Stack_v5.0/Src/output/twrk70f120m.gcc_arm/debug/usbh/bm/usbh.a(khci.o)
_usb_khci_handle_iso_msg                          C:/Freescale_BM_USB_Stack_v5.0/Src/output/twrk70f120m.gcc_arm/debug/usbh/bm/usbh.a(khci.o)
_usb_khci_host_api_table                          C:/Freescale_BM_USB_Stack_v5.0/Src/output/twrk70f120m.gcc_arm/debug/usbh/bm/usbh.a(khci.o)
                                                  C:/Freescale_BM_USB_Stack_v5.0/Src/output/twrk70f120m.gcc_arm/debug/usbh/bm/usbh.a(usb_host.o)
_usb_khci_isr                                     C:/Freescale_BM_USB_Stack_v5.0/Src/output/twrk70f120m.gcc_arm/debug/usbh/bm/usbh.a(khci.o)
_usb_khci_open_pipe                               C:/Freescale_BM_USB_Stack_v5.0/Src/output/twrk70f120m.gcc_arm/debug/usbh/bm/usbh.a(khci.o)
_usb_process_iso_tr                               C:/Freescale_BM_USB_Stack_v5.0/Src/output/twrk70f120m.gcc_arm/debug/usbh/bm/usbh.a(khci.o)
_wrapup_reent                                     C:/FREESC~1/CWMCUV~1.7/CROSS_~1/ARM-NO~1/arm-none-eabi/lib/armv7e-m/softfp/libc.a(lib_a-reent.o)
bm_install_isr                                    C:/Freescale_BM_USB_Stack_v5.0/Src/example/host/hid/mouse/bm/make/host_hid_mouse_twrk70f120m/gcc_arm/MK70FN1M0_HOST_Flash_debug/obj/bmisr.o
                                                  C:/Freescale_BM_USB_Stack_v5.0/Src/output/twrk70f120m.gcc_arm/debug/usbh/bm/usbh.a(khci.o)
                                                  C:/Freescale_BM_USB_Stack_v5.0/Src/output/twrk70f120m.gcc_arm/debug/usbh/bm/usbh.a(ehci_host.o)
bm_int_init                                       C:/Freescale_BM_USB_Stack_v5.0/Src/example/host/hid/mouse/bm/make/host_hid_mouse_twrk70f120m/gcc_arm/MK70FN1M0_HOST_Flash_debug/obj/bmisr.o
                                                  C:/Freescale_BM_USB_Stack_v5.0/Src/output/twrk70f120m.gcc_arm/debug/usbh/bm/usbh.a(usb_host_bsp.o)
                                                  C:/Freescale_BM_USB_Stack_v5.0/Src/example/host/hid/mouse/bm/make/host_hid_mouse_twrk70f120m/gcc_arm/MK70FN1M0_HOST_Flash_debug/obj/rtc_kinetis.o
                                                  C:/Freescale_BM_USB_Stack_v5.0/Src/example/host/hid/mouse/bm/make/host_hid_mouse_twrk70f120m/gcc_arm/MK70FN1M0_HOST_Flash_debug/obj/pit_delay.o
bsp_get_serial_vector                             C:/Freescale_BM_USB_Stack_v5.0/Src/example/host/hid/mouse/bm/make/host_hid_mouse_twrk70f120m/gcc_arm/MK70FN1M0_HOST_Flash_debug/obj/soc_sci.o
bsp_serial_io_init                                C:/Freescale_BM_USB_Stack_v5.0/Src/example/host/hid/mouse/bm/make/host_hid_mouse_twrk70f120m/gcc_arm/MK70FN1M0_HOST_Flash_debug/obj/init_gpio.o
                                                  C:/Freescale_BM_USB_Stack_v5.0/Src/example/host/hid/mouse/bm/make/host_hid_mouse_twrk70f120m/gcc_arm/MK70FN1M0_HOST_Flash_debug/obj/sci.o
bsp_usb_host_init                                 C:/Freescale_BM_USB_Stack_v5.0/Src/output/twrk70f120m.gcc_arm/debug/usbh/bm/usbh.a(usb_host_bsp.o)
                                                  C:/Freescale_BM_USB_Stack_v5.0/Src/output/twrk70f120m.gcc_arm/debug/usbh/bm/usbh.a(usb_host.o)
class_interface_map                               C:/Freescale_BM_USB_Stack_v5.0/Src/output/twrk70f120m.gcc_arm/debug/usbh/bm/usbh.a(usb_classes.o)
                                                  C:/Freescale_BM_USB_Stack_v5.0/Src/output/twrk70f120m.gcc_arm/debug/usbh/bm/usbh.a(usb_host_common.o)
cleanup_glue                                      C:/FREESC~1/CWMCUV~1.7/CROSS_~1/ARM-NO~1/arm-none-eabi/lib/armv7e-m/softfp/libc.a(lib_a-reent.o)
delay                                             C:/Freescale_BM_USB_Stack_v5.0/Src/example/host/hid/mouse/bm/make/host_hid_mouse_twrk70f120m/gcc_arm/MK70FN1M0_HOST_Flash_debug/obj/pit_delay.o
                                                  C:/Freescale_BM_USB_Stack_v5.0/Src/output/twrk70f120m.gcc_arm/debug/usbh/bm/usbh.a(adapter_bm.o)
delay_count                                       C:/Freescale_BM_USB_Stack_v5.0/Src/example/host/hid/mouse/bm/make/host_hid_mouse_twrk70f120m/gcc_arm/MK70FN1M0_HOST_Flash_debug/obj/pit_delay.o
delay_init                                        C:/Freescale_BM_USB_Stack_v5.0/Src/example/host/hid/mouse/bm/make/host_hid_mouse_twrk70f120m/gcc_arm/MK70FN1M0_HOST_Flash_debug/obj/pit_delay.o
                                                  C:/Freescale_BM_USB_Stack_v5.0/Src/example/host/hid/mouse/bm/make/host_hid_mouse_twrk70f120m/gcc_arm/MK70FN1M0_HOST_Flash_debug/obj/main_kinetis.o
ehci_host_task_id                                 C:/Freescale_BM_USB_Stack_v5.0/Src/output/twrk70f120m.gcc_arm/debug/usbh/bm/usbh.a(ehci_host.o)
end                                               C:/FREESC~1/CWMCUV~1.7/CROSS_~1/ARM-NO~1/arm-none-eabi/lib/armv7e-m/softfp/libnosys.a(sbrk.o)
errno                                             C:/FREESC~1/CWMCUV~1.7/CROSS_~1/ARM-NO~1/arm-none-eabi/lib/armv7e-m/softfp/libc.a(lib_a-reent.o)
                                                  C:/FREESC~1/CWMCUV~1.7/CROSS_~1/ARM-NO~1/arm-none-eabi/lib/armv7e-m/softfp/libc.a(lib_a-sbrkr.o)
free                                              C:/FREESC~1/CWMCUV~1.7/CROSS_~1/ARM-NO~1/arm-none-eabi/lib/armv7e-m/softfp/libc.a(lib_a-malloc.o)
                                                  C:/Freescale_BM_USB_Stack_v5.0/Src/example/host/hid/mouse/bm/make/host_hid_mouse_twrk70f120m/gcc_arm/MK70FN1M0_HOST_Flash_debug/obj/mem_util.o
                                                  C:/Freescale_BM_USB_Stack_v5.0/Src/example/host/hid/mouse/bm/make/host_hid_mouse_twrk70f120m/gcc_arm/MK70FN1M0_HOST_Flash_debug/obj/bmmsgq.o
g_TimerObjectArray                                C:/Freescale_BM_USB_Stack_v5.0/Src/example/host/hid/mouse/bm/make/host_hid_mouse_twrk70f120m/gcc_arm/MK70FN1M0_HOST_Flash_debug/obj/rtc_kinetis.o
g_poll                                            C:/Freescale_BM_USB_Stack_v5.0/Src/example/host/hid/mouse/bm/make/host_hid_mouse_twrk70f120m/gcc_arm/MK70FN1M0_HOST_Flash_debug/obj/poll.o
g_sci_ptr                                         C:/Freescale_BM_USB_Stack_v5.0/Src/example/host/hid/mouse/bm/make/host_hid_mouse_twrk70f120m/gcc_arm/MK70FN1M0_HOST_Flash_debug/obj/sci.o
g_usb_instance                                    C:/Freescale_BM_USB_Stack_v5.0/Src/output/twrk70f120m.gcc_arm/debug/usbh/bm/usbh.a(khci.o)
g_usb_instance_echi                               C:/Freescale_BM_USB_Stack_v5.0/Src/output/twrk70f120m.gcc_arm/debug/usbh/bm/usbh.a(ehci_host.o)
g_usb_lock_level                                  C:/Freescale_BM_USB_Stack_v5.0/Src/example/host/hid/mouse/bm/make/host_hid_mouse_twrk70f120m/gcc_arm/MK70FN1M0_HOST_Flash_debug/obj/nvic.o
host_handle                                       C:/Freescale_BM_USB_Stack_v5.0/Src/example/host/hid/mouse/bm/make/host_hid_mouse_twrk70f120m/gcc_arm/MK70FN1M0_HOST_Flash_debug/obj/hidmouse.o
init_data_bss                                     C:/Freescale_BM_USB_Stack_v5.0/Src/example/host/hid/mouse/bm/make/host_hid_mouse_twrk70f120m/gcc_arm/MK70FN1M0_HOST_Flash_debug/obj/startup.o
init_hardware                                     C:/Freescale_BM_USB_Stack_v5.0/Src/example/host/hid/mouse/bm/make/host_hid_mouse_twrk70f120m/gcc_arm/MK70FN1M0_HOST_Flash_debug/obj/startup.o
kbi_stat                                          C:/Freescale_BM_USB_Stack_v5.0/Src/example/host/hid/mouse/bm/make/host_hid_mouse_twrk70f120m/gcc_arm/MK70FN1M0_HOST_Flash_debug/obj/main_kinetis.o
main                                              C:/Freescale_BM_USB_Stack_v5.0/Src/example/host/hid/mouse/bm/make/host_hid_mouse_twrk70f120m/gcc_arm/MK70FN1M0_HOST_Flash_debug/obj/main_kinetis.o
                                                  C:/Freescale_BM_USB_Stack_v5.0/Src/example/host/hid/mouse/bm/make/host_hid_mouse_twrk70f120m/gcc_arm/MK70FN1M0_HOST_Flash_debug/obj/startup_MK70FN1M012.o
                                                  C:/Freescale_BM_USB_Stack_v5.0/Src/example/host/hid/mouse/bm/make/host_hid_mouse_twrk70f120m/gcc_arm/MK70FN1M0_HOST_Flash_debug/obj/startup.o
malloc                                            C:/FREESC~1/CWMCUV~1.7/CROSS_~1/ARM-NO~1/arm-none-eabi/lib/armv7e-m/softfp/libc.a(lib_a-malloc.o)
                                                  C:/Freescale_BM_USB_Stack_v5.0/Src/example/host/hid/mouse/bm/make/host_hid_mouse_twrk70f120m/gcc_arm/MK70FN1M0_HOST_Flash_debug/obj/mem_util.o
                                                  C:/Freescale_BM_USB_Stack_v5.0/Src/example/host/hid/mouse/bm/make/host_hid_mouse_twrk70f120m/gcc_arm/MK70FN1M0_HOST_Flash_debug/obj/bmmsgq.o
memcpy                                            C:/FREESC~1/CWMCUV~1.7/CROSS_~1/ARM-NO~1/arm-none-eabi/lib/armv7e-m/softfp/libc.a(lib_a-memcpy.o)
                                                  C:/Freescale_BM_USB_Stack_v5.0/Src/output/twrk70f120m.gcc_arm/debug/usbh/bm/usbh.a(khci.o)
                                                  C:/Freescale_BM_USB_Stack_v5.0/Src/example/host/hid/mouse/bm/make/host_hid_mouse_twrk70f120m/gcc_arm/MK70FN1M0_HOST_Flash_debug/obj/rtc_kinetis.o
memset                                            C:/FREESC~1/CWMCUV~1.7/CROSS_~1/ARM-NO~1/arm-none-eabi/lib/armv7e-m/softfp/libc.a(lib_a-memset.o)
                                                  C:/Freescale_BM_USB_Stack_v5.0/Src/output/twrk70f120m.gcc_arm/debug/usbh/bm/usbh.a(usb_host_phdc.o)
                                                  C:/Freescale_BM_USB_Stack_v5.0/Src/output/twrk70f120m.gcc_arm/debug/usbh/bm/usbh.a(ehci_host.o)
                                                  C:/Freescale_BM_USB_Stack_v5.0/Src/output/twrk70f120m.gcc_arm/debug/usbh/bm/usbh.a(usb_host.o)
                                                  C:/Freescale_BM_USB_Stack_v5.0/Src/example/host/hid/mouse/bm/make/host_hid_mouse_twrk70f120m/gcc_arm/MK70FN1M0_HOST_Flash_debug/obj/rtc_kinetis.o
                                                  C:/Freescale_BM_USB_Stack_v5.0/Src/example/host/hid/mouse/bm/make/host_hid_mouse_twrk70f120m/gcc_arm/MK70FN1M0_HOST_Flash_debug/obj/mem_util.o
                                                  C:/Freescale_BM_USB_Stack_v5.0/Src/example/host/hid/mouse/bm/make/host_hid_mouse_twrk70f120m/gcc_arm/MK70FN1M0_HOST_Flash_debug/obj/hidmouse.o
mouse_buffer                                      C:/Freescale_BM_USB_Stack_v5.0/Src/example/host/hid/mouse/bm/make/host_hid_mouse_twrk70f120m/gcc_arm/MK70FN1M0_HOST_Flash_debug/obj/hidmouse.o
mouse_data_received                               C:/Freescale_BM_USB_Stack_v5.0/Src/example/host/hid/mouse/bm/make/host_hid_mouse_twrk70f120m/gcc_arm/MK70FN1M0_HOST_Flash_debug/obj/hidmouse.o
mouse_hid_com                                     C:/Freescale_BM_USB_Stack_v5.0/Src/example/host/hid/mouse/bm/make/host_hid_mouse_twrk70f120m/gcc_arm/MK70FN1M0_HOST_Flash_debug/obj/hidmouse.o
mouse_hid_device                                  C:/Freescale_BM_USB_Stack_v5.0/Src/example/host/hid/mouse/bm/make/host_hid_mouse_twrk70f120m/gcc_arm/MK70FN1M0_HOST_Flash_debug/obj/hidmouse.o
mouse_hid_get_buffer                              C:/Freescale_BM_USB_Stack_v5.0/Src/example/host/hid/mouse/bm/make/host_hid_mouse_twrk70f120m/gcc_arm/MK70FN1M0_HOST_Flash_debug/obj/hidmouse.o
mouse_hid_get_interface                           C:/Freescale_BM_USB_Stack_v5.0/Src/example/host/hid/mouse/bm/make/host_hid_mouse_twrk70f120m/gcc_arm/MK70FN1M0_HOST_Flash_debug/obj/hidmouse.o
mouse_hid_get_report_descriptor                   C:/Freescale_BM_USB_Stack_v5.0/Src/example/host/hid/mouse/bm/make/host_hid_mouse_twrk70f120m/gcc_arm/MK70FN1M0_HOST_Flash_debug/obj/hidmouse.o
mouse_interface_info                              C:/Freescale_BM_USB_Stack_v5.0/Src/example/host/hid/mouse/bm/make/host_hid_mouse_twrk70f120m/gcc_arm/MK70FN1M0_HOST_Flash_debug/obj/hidmouse.o
mouse_interface_number                            C:/Freescale_BM_USB_Stack_v5.0/Src/example/host/hid/mouse/bm/make/host_hid_mouse_twrk70f120m/gcc_arm/MK70FN1M0_HOST_Flash_debug/obj/hidmouse.o
mouse_reportDescriptor                            C:/Freescale_BM_USB_Stack_v5.0/Src/example/host/hid/mouse/bm/make/host_hid_mouse_twrk70f120m/gcc_arm/MK70FN1M0_HOST_Flash_debug/obj/hidmouse.o
mouse_reportLength                                C:/Freescale_BM_USB_Stack_v5.0/Src/example/host/hid/mouse/bm/make/host_hid_mouse_twrk70f120m/gcc_arm/MK70FN1M0_HOST_Flash_debug/obj/hidmouse.o
mouse_size                                        C:/Freescale_BM_USB_Stack_v5.0/Src/example/host/hid/mouse/bm/make/host_hid_mouse_twrk70f120m/gcc_arm/MK70FN1M0_HOST_Flash_debug/obj/hidmouse.o
mouse_usb_event                                   C:/Freescale_BM_USB_Stack_v5.0/Src/example/host/hid/mouse/bm/make/host_hid_mouse_twrk70f120m/gcc_arm/MK70FN1M0_HOST_Flash_debug/obj/hidmouse.o
ms_count                                          C:/Freescale_BM_USB_Stack_v5.0/Src/example/host/hid/mouse/bm/make/host_hid_mouse_twrk70f120m/gcc_arm/MK70FN1M0_HOST_Flash_debug/obj/rtc_kinetis.o
nvic_int_disable                                  C:/Freescale_BM_USB_Stack_v5.0/Src/example/host/hid/mouse/bm/make/host_hid_mouse_twrk70f120m/gcc_arm/MK70FN1M0_HOST_Flash_debug/obj/nvic.o
nvic_int_enable                                   C:/Freescale_BM_USB_Stack_v5.0/Src/example/host/hid/mouse/bm/make/host_hid_mouse_twrk70f120m/gcc_arm/MK70FN1M0_HOST_Flash_debug/obj/nvic.o
nvic_int_init                                     C:/Freescale_BM_USB_Stack_v5.0/Src/example/host/hid/mouse/bm/make/host_hid_mouse_twrk70f120m/gcc_arm/MK70FN1M0_HOST_Flash_debug/obj/nvic.o
                                                  C:/Freescale_BM_USB_Stack_v5.0/Src/example/host/hid/mouse/bm/make/host_hid_mouse_twrk70f120m/gcc_arm/MK70FN1M0_HOST_Flash_debug/obj/bmisr.o
out_char                                          C:/Freescale_BM_USB_Stack_v5.0/Src/example/host/hid/mouse/bm/make/host_hid_mouse_twrk70f120m/gcc_arm/MK70FN1M0_HOST_Flash_debug/obj/sci.o
                                                  C:/Freescale_BM_USB_Stack_v5.0/Src/example/host/hid/mouse/bm/make/host_hid_mouse_twrk70f120m/gcc_arm/MK70FN1M0_HOST_Flash_debug/obj/printf.o
pin                                               C:/Freescale_BM_USB_Stack_v5.0/Src/output/twrk70f120m.gcc_arm/debug/usbh/bm/usbh.a(khci.o)
pit_check_int_flag                                C:/Freescale_BM_USB_Stack_v5.0/Src/example/host/hid/mouse/bm/make/host_hid_mouse_twrk70f120m/gcc_arm/MK70FN1M0_HOST_Flash_debug/obj/soc_pit.o
                                                  C:/Freescale_BM_USB_Stack_v5.0/Src/example/host/hid/mouse/bm/make/host_hid_mouse_twrk70f120m/gcc_arm/MK70FN1M0_HOST_Flash_debug/obj/rtc_kinetis.o
                                                  C:/Freescale_BM_USB_Stack_v5.0/Src/example/host/hid/mouse/bm/make/host_hid_mouse_twrk70f120m/gcc_arm/MK70FN1M0_HOST_Flash_debug/obj/pit_delay.o
pit_clear_int                                     C:/Freescale_BM_USB_Stack_v5.0/Src/example/host/hid/mouse/bm/make/host_hid_mouse_twrk70f120m/gcc_arm/MK70FN1M0_HOST_Flash_debug/obj/soc_pit.o
                                                  C:/Freescale_BM_USB_Stack_v5.0/Src/example/host/hid/mouse/bm/make/host_hid_mouse_twrk70f120m/gcc_arm/MK70FN1M0_HOST_Flash_debug/obj/rtc_kinetis.o
                                                  C:/Freescale_BM_USB_Stack_v5.0/Src/example/host/hid/mouse/bm/make/host_hid_mouse_twrk70f120m/gcc_arm/MK70FN1M0_HOST_Flash_debug/obj/pit_delay.o
pit_get_base_address                              C:/Freescale_BM_USB_Stack_v5.0/Src/example/host/hid/mouse/bm/make/host_hid_mouse_twrk70f120m/gcc_arm/MK70FN1M0_HOST_Flash_debug/obj/soc_pit.o
pit_get_vector                                    C:/Freescale_BM_USB_Stack_v5.0/Src/example/host/hid/mouse/bm/make/host_hid_mouse_twrk70f120m/gcc_arm/MK70FN1M0_HOST_Flash_debug/obj/soc_pit.o
                                                  C:/Freescale_BM_USB_Stack_v5.0/Src/example/host/hid/mouse/bm/make/host_hid_mouse_twrk70f120m/gcc_arm/MK70FN1M0_HOST_Flash_debug/obj/soc_isr.o
                                                  C:/Freescale_BM_USB_Stack_v5.0/Src/example/host/hid/mouse/bm/make/host_hid_mouse_twrk70f120m/gcc_arm/MK70FN1M0_HOST_Flash_debug/obj/rtc_kinetis.o
                                                  C:/Freescale_BM_USB_Stack_v5.0/Src/example/host/hid/mouse/bm/make/host_hid_mouse_twrk70f120m/gcc_arm/MK70FN1M0_HOST_Flash_debug/obj/pit_delay.o
pit_init_freq                                     C:/Freescale_BM_USB_Stack_v5.0/Src/example/host/hid/mouse/bm/make/host_hid_mouse_twrk70f120m/gcc_arm/MK70FN1M0_HOST_Flash_debug/obj/soc_pit.o
                                                  C:/Freescale_BM_USB_Stack_v5.0/Src/example/host/hid/mouse/bm/make/host_hid_mouse_twrk70f120m/gcc_arm/MK70FN1M0_HOST_Flash_debug/obj/rtc_kinetis.o
                                                  C:/Freescale_BM_USB_Stack_v5.0/Src/example/host/hid/mouse/bm/make/host_hid_mouse_twrk70f120m/gcc_arm/MK70FN1M0_HOST_Flash_debug/obj/pit_delay.o
pit_mask_int                                      C:/Freescale_BM_USB_Stack_v5.0/Src/example/host/hid/mouse/bm/make/host_hid_mouse_twrk70f120m/gcc_arm/MK70FN1M0_HOST_Flash_debug/obj/soc_pit.o
                                                  C:/Freescale_BM_USB_Stack_v5.0/Src/example/host/hid/mouse/bm/make/host_hid_mouse_twrk70f120m/gcc_arm/MK70FN1M0_HOST_Flash_debug/obj/rtc_kinetis.o
                                                  C:/Freescale_BM_USB_Stack_v5.0/Src/example/host/hid/mouse/bm/make/host_hid_mouse_twrk70f120m/gcc_arm/MK70FN1M0_HOST_Flash_debug/obj/pit_delay.o
pit_unmask_int                                    C:/Freescale_BM_USB_Stack_v5.0/Src/example/host/hid/mouse/bm/make/host_hid_mouse_twrk70f120m/gcc_arm/MK70FN1M0_HOST_Flash_debug/obj/soc_pit.o
                                                  C:/Freescale_BM_USB_Stack_v5.0/Src/example/host/hid/mouse/bm/make/host_hid_mouse_twrk70f120m/gcc_arm/MK70FN1M0_HOST_Flash_debug/obj/rtc_kinetis.o
                                                  C:/Freescale_BM_USB_Stack_v5.0/Src/example/host/hid/mouse/bm/make/host_hid_mouse_twrk70f120m/gcc_arm/MK70FN1M0_HOST_Flash_debug/obj/pit_delay.o
pit_vectors                                       C:/Freescale_BM_USB_Stack_v5.0/Src/example/host/hid/mouse/bm/make/host_hid_mouse_twrk70f120m/gcc_arm/MK70FN1M0_HOST_Flash_debug/obj/soc_pit.o
printf_kinetis                                    C:/Freescale_BM_USB_Stack_v5.0/Src/example/host/hid/mouse/bm/make/host_hid_mouse_twrk70f120m/gcc_arm/MK70FN1M0_HOST_Flash_debug/obj/printf.o
                                                  C:/Freescale_BM_USB_Stack_v5.0/Src/output/twrk70f120m.gcc_arm/debug/usbh/bm/usbh.a(usb_host_phdc.o)
                                                  C:/Freescale_BM_USB_Stack_v5.0/Src/output/twrk70f120m.gcc_arm/debug/usbh/bm/usbh.a(usb_host_msd_bo.o)
                                                  C:/Freescale_BM_USB_Stack_v5.0/Src/output/twrk70f120m.gcc_arm/debug/usbh/bm/usbh.a(usb_host_hub.o)
                                                  C:/Freescale_BM_USB_Stack_v5.0/Src/output/twrk70f120m.gcc_arm/debug/usbh/bm/usbh.a(usb_host_cdc_intf.o)
                                                  C:/Freescale_BM_USB_Stack_v5.0/Src/output/twrk70f120m.gcc_arm/debug/usbh/bm/usbh.a(usb_host_audio_intf.o)
                                                  C:/Freescale_BM_USB_Stack_v5.0/Src/output/twrk70f120m.gcc_arm/debug/usbh/bm/usbh.a(khci.o)
                                                  C:/Freescale_BM_USB_Stack_v5.0/Src/output/twrk70f120m.gcc_arm/debug/usbh/bm/usbh.a(ehci_host.o)
                                                  C:/Freescale_BM_USB_Stack_v5.0/Src/output/twrk70f120m.gcc_arm/debug/usbh/bm/usbh.a(usb_host_hub_sm.o)
                                                  C:/Freescale_BM_USB_Stack_v5.0/Src/output/twrk70f120m.gcc_arm/debug/usbh/bm/usbh.a(usb_host_hid.o)
                                                  C:/Freescale_BM_USB_Stack_v5.0/Src/output/twrk70f120m.gcc_arm/debug/usbh/bm/usbh.a(usb_host_dev_mng.o)
                                                  C:/Freescale_BM_USB_Stack_v5.0/Src/output/twrk70f120m.gcc_arm/debug/usbh/bm/usbh.a(usb_host_ch9.o)
                                                  C:/Freescale_BM_USB_Stack_v5.0/Src/output/twrk70f120m.gcc_arm/debug/usbh/bm/usbh.a(usb_host.o)
                                                  C:/Freescale_BM_USB_Stack_v5.0/Src/example/host/hid/mouse/bm/make/host_hid_mouse_twrk70f120m/gcc_arm/MK70FN1M0_HOST_Flash_debug/obj/hidmouse.o
printk                                            C:/Freescale_BM_USB_Stack_v5.0/Src/example/host/hid/mouse/bm/make/host_hid_mouse_twrk70f120m/gcc_arm/MK70FN1M0_HOST_Flash_debug/obj/printf.o
process_mouse_buffer                              C:/Freescale_BM_USB_Stack_v5.0/Src/example/host/hid/mouse/bm/make/host_hid_mouse_twrk70f120m/gcc_arm/MK70FN1M0_HOST_Flash_debug/obj/hidmouse.o
real_timer_isr                                    C:/Freescale_BM_USB_Stack_v5.0/Src/example/host/hid/mouse/bm/make/host_hid_mouse_twrk70f120m/gcc_arm/MK70FN1M0_HOST_Flash_debug/obj/rtc_kinetis.o
reclaim_band_width                                C:/Freescale_BM_USB_Stack_v5.0/Src/output/twrk70f120m.gcc_arm/debug/usbh/bm/usbh.a(ehci_host.o)
registered_function                               C:/Freescale_BM_USB_Stack_v5.0/Src/output/twrk70f120m.gcc_arm/debug/usbh/bm/usbh.a(adapter_bm.o)
sci_init                                          C:/Freescale_BM_USB_Stack_v5.0/Src/example/host/hid/mouse/bm/make/host_hid_mouse_twrk70f120m/gcc_arm/MK70FN1M0_HOST_Flash_debug/obj/sci.o
                                                  C:/Freescale_BM_USB_Stack_v5.0/Src/example/host/hid/mouse/bm/make/host_hid_mouse_twrk70f120m/gcc_arm/MK70FN1M0_HOST_Flash_debug/obj/main_kinetis.o
soc_get_usb_base_address                          C:/Freescale_BM_USB_Stack_v5.0/Src/example/host/hid/mouse/bm/make/host_hid_mouse_twrk70f120m/gcc_arm/MK70FN1M0_HOST_Flash_debug/obj/soc_usb.o
                                                  C:/Freescale_BM_USB_Stack_v5.0/Src/output/twrk70f120m.gcc_arm/debug/usbh/bm/usbh.a(ehci_host.o)
soc_get_usb_vector_number                         C:/Freescale_BM_USB_Stack_v5.0/Src/example/host/hid/mouse/bm/make/host_hid_mouse_twrk70f120m/gcc_arm/MK70FN1M0_HOST_Flash_debug/obj/soc_usb.o
                                                  C:/Freescale_BM_USB_Stack_v5.0/Src/output/twrk70f120m.gcc_arm/debug/usbh/bm/usbh.a(khci.o)
                                                  C:/Freescale_BM_USB_Stack_v5.0/Src/output/twrk70f120m.gcc_arm/debug/usbh/bm/usbh.a(ehci_host.o)
                                                  C:/Freescale_BM_USB_Stack_v5.0/Src/output/twrk70f120m.gcc_arm/debug/usbh/bm/usbh.a(usb_host_bsp.o)
soc_install_isr                                   C:/Freescale_BM_USB_Stack_v5.0/Src/example/host/hid/mouse/bm/make/host_hid_mouse_twrk70f120m/gcc_arm/MK70FN1M0_HOST_Flash_debug/obj/soc_isr.o
                                                  C:/Freescale_BM_USB_Stack_v5.0/Src/example/host/hid/mouse/bm/make/host_hid_mouse_twrk70f120m/gcc_arm/MK70FN1M0_HOST_Flash_debug/obj/rtc_kinetis.o
                                                  C:/Freescale_BM_USB_Stack_v5.0/Src/example/host/hid/mouse/bm/make/host_hid_mouse_twrk70f120m/gcc_arm/MK70FN1M0_HOST_Flash_debug/obj/pit_delay.o
                                                  C:/Freescale_BM_USB_Stack_v5.0/Src/example/host/hid/mouse/bm/make/host_hid_mouse_twrk70f120m/gcc_arm/MK70FN1M0_HOST_Flash_debug/obj/bmisr.o
sprintf_kinetis                                   C:/Freescale_BM_USB_Stack_v5.0/Src/example/host/hid/mouse/bm/make/host_hid_mouse_twrk70f120m/gcc_arm/MK70FN1M0_HOST_Flash_debug/obj/printf.o
strlen                                            C:/FREESC~1/CWMCUV~1.7/CROSS_~1/ARM-NO~1/arm-none-eabi/lib/armv7e-m/softfp/libc.a(lib_a-strlen.o)
                                                  C:/Freescale_BM_USB_Stack_v5.0/Src/example/host/hid/mouse/bm/make/host_hid_mouse_twrk70f120m/gcc_arm/MK70FN1M0_HOST_Flash_debug/obj/printf.o
strncmp                                           C:/FREESC~1/CWMCUV~1.7/CROSS_~1/ARM-NO~1/arm-none-eabi/lib/armv7e-m/softfp/libc.a(lib_a-strncmp.o)
                                                  C:/Freescale_BM_USB_Stack_v5.0/Src/output/twrk70f120m.gcc_arm/debug/usbh/bm/usbh.a(usb_host_phdc.o)
sys_lock                                          C:/Freescale_BM_USB_Stack_v5.0/Src/example/host/hid/mouse/bm/make/host_hid_mouse_twrk70f120m/gcc_arm/MK70FN1M0_HOST_Flash_debug/obj/nvic.o
                                                  C:/Freescale_BM_USB_Stack_v5.0/Src/output/twrk70f120m.gcc_arm/debug/usbh/bm/usbh.a(khci.o)
                                                  C:/Freescale_BM_USB_Stack_v5.0/Src/output/twrk70f120m.gcc_arm/debug/usbh/bm/usbh.a(usb_host.o)
                                                  C:/Freescale_BM_USB_Stack_v5.0/Src/example/host/hid/mouse/bm/make/host_hid_mouse_twrk70f120m/gcc_arm/MK70FN1M0_HOST_Flash_debug/obj/bmevent.o
sys_unlock                                        C:/Freescale_BM_USB_Stack_v5.0/Src/example/host/hid/mouse/bm/make/host_hid_mouse_twrk70f120m/gcc_arm/MK70FN1M0_HOST_Flash_debug/obj/nvic.o
                                                  C:/Freescale_BM_USB_Stack_v5.0/Src/output/twrk70f120m.gcc_arm/debug/usbh/bm/usbh.a(usb_host_msd_bo.o)
                                                  C:/Freescale_BM_USB_Stack_v5.0/Src/output/twrk70f120m.gcc_arm/debug/usbh/bm/usbh.a(khci.o)
                                                  C:/Freescale_BM_USB_Stack_v5.0/Src/output/twrk70f120m.gcc_arm/debug/usbh/bm/usbh.a(usb_host_ch9.o)
                                                  C:/Freescale_BM_USB_Stack_v5.0/Src/output/twrk70f120m.gcc_arm/debug/usbh/bm/usbh.a(usb_host.o)
                                                  C:/Freescale_BM_USB_Stack_v5.0/Src/example/host/hid/mouse/bm/make/host_hid_mouse_twrk70f120m/gcc_arm/MK70FN1M0_HOST_Flash_debug/obj/bmevent.o
task_id                                           C:/Freescale_BM_USB_Stack_v5.0/Src/output/twrk70f120m.gcc_arm/debug/usbh/bm/usbh.a(khci.o)
time_delay                                        C:/Freescale_BM_USB_Stack_v5.0/Src/example/host/hid/mouse/bm/make/host_hid_mouse_twrk70f120m/gcc_arm/MK70FN1M0_HOST_Flash_debug/obj/pit_delay.o
                                                  C:/Freescale_BM_USB_Stack_v5.0/Src/output/twrk70f120m.gcc_arm/debug/usbh/bm/usbh.a(khci.o)
                                                  C:/Freescale_BM_USB_Stack_v5.0/Src/output/twrk70f120m.gcc_arm/debug/usbh/bm/usbh.a(usb_host_bsp.o)
toolchain_startup                                 C:/Freescale_BM_USB_Stack_v5.0/Src/example/host/hid/mouse/bm/make/host_hid_mouse_twrk70f120m/gcc_arm/MK70FN1M0_HOST_Flash_debug/obj/startup.o
uart_getchar                                      C:/Freescale_BM_USB_Stack_v5.0/Src/example/host/hid/mouse/bm/make/host_hid_mouse_twrk70f120m/gcc_arm/MK70FN1M0_HOST_Flash_debug/obj/sci.o
uart_getchar_no_block                             C:/Freescale_BM_USB_Stack_v5.0/Src/example/host/hid/mouse/bm/make/host_hid_mouse_twrk70f120m/gcc_arm/MK70FN1M0_HOST_Flash_debug/obj/sci.o
uart_putchar                                      C:/Freescale_BM_USB_Stack_v5.0/Src/example/host/hid/mouse/bm/make/host_hid_mouse_twrk70f120m/gcc_arm/MK70FN1M0_HOST_Flash_debug/obj/sci.o
uart_sendchar_no_block                            C:/Freescale_BM_USB_Stack_v5.0/Src/example/host/hid/mouse/bm/make/host_hid_mouse_twrk70f120m/gcc_arm/MK70FN1M0_HOST_Flash_debug/obj/sci.o
unlink_periodic_data_structure_from_frame         C:/Freescale_BM_USB_Stack_v5.0/Src/output/twrk70f120m.gcc_arm/debug/usbh/bm/usbh.a(ehci_host.o)
usb_class_audio_control_deinit                    C:/Freescale_BM_USB_Stack_v5.0/Src/output/twrk70f120m.gcc_arm/debug/usbh/bm/usbh.a(usb_host_audio_intf.o)
                                                  C:/Freescale_BM_USB_Stack_v5.0/Src/output/twrk70f120m.gcc_arm/debug/usbh/bm/usbh.a(usb_classes.o)
usb_class_audio_control_get_descriptors           C:/Freescale_BM_USB_Stack_v5.0/Src/output/twrk70f120m.gcc_arm/debug/usbh/bm/usbh.a(usb_host_audio_intf.o)
usb_class_audio_control_init                      C:/Freescale_BM_USB_Stack_v5.0/Src/output/twrk70f120m.gcc_arm/debug/usbh/bm/usbh.a(usb_host_audio_intf.o)
                                                  C:/Freescale_BM_USB_Stack_v5.0/Src/output/twrk70f120m.gcc_arm/debug/usbh/bm/usbh.a(usb_classes.o)
usb_class_audio_control_pre_deinit                C:/Freescale_BM_USB_Stack_v5.0/Src/output/twrk70f120m.gcc_arm/debug/usbh/bm/usbh.a(usb_host_audio_intf.o)
                                                  C:/Freescale_BM_USB_Stack_v5.0/Src/output/twrk70f120m.gcc_arm/debug/usbh/bm/usbh.a(usb_classes.o)
usb_class_audio_control_set_descriptors           C:/Freescale_BM_USB_Stack_v5.0/Src/output/twrk70f120m.gcc_arm/debug/usbh/bm/usbh.a(usb_host_audio_intf.o)
usb_class_audio_stream_deinit                     C:/Freescale_BM_USB_Stack_v5.0/Src/output/twrk70f120m.gcc_arm/debug/usbh/bm/usbh.a(usb_host_audio_intf.o)
                                                  C:/Freescale_BM_USB_Stack_v5.0/Src/output/twrk70f120m.gcc_arm/debug/usbh/bm/usbh.a(usb_classes.o)
usb_class_audio_stream_get_descriptors            C:/Freescale_BM_USB_Stack_v5.0/Src/output/twrk70f120m.gcc_arm/debug/usbh/bm/usbh.a(usb_host_audio_intf.o)
usb_class_audio_stream_get_sample_type            C:/Freescale_BM_USB_Stack_v5.0/Src/output/twrk70f120m.gcc_arm/debug/usbh/bm/usbh.a(usb_host_audio_intf.o)
usb_class_audio_stream_init                       C:/Freescale_BM_USB_Stack_v5.0/Src/output/twrk70f120m.gcc_arm/debug/usbh/bm/usbh.a(usb_host_audio_intf.o)
                                                  C:/Freescale_BM_USB_Stack_v5.0/Src/output/twrk70f120m.gcc_arm/debug/usbh/bm/usbh.a(usb_classes.o)
usb_class_audio_stream_pre_deinit                 C:/Freescale_BM_USB_Stack_v5.0/Src/output/twrk70f120m.gcc_arm/debug/usbh/bm/usbh.a(usb_host_audio_intf.o)
                                                  C:/Freescale_BM_USB_Stack_v5.0/Src/output/twrk70f120m.gcc_arm/debug/usbh/bm/usbh.a(usb_classes.o)
usb_class_audio_stream_set_descriptors            C:/Freescale_BM_USB_Stack_v5.0/Src/output/twrk70f120m.gcc_arm/debug/usbh/bm/usbh.a(usb_host_audio_intf.o)
usb_class_cdc_acm_deinit                          C:/Freescale_BM_USB_Stack_v5.0/Src/output/twrk70f120m.gcc_arm/debug/usbh/bm/usbh.a(usb_host_cdc_intf.o)
                                                  C:/Freescale_BM_USB_Stack_v5.0/Src/output/twrk70f120m.gcc_arm/debug/usbh/bm/usbh.a(usb_classes.o)
usb_class_cdc_acm_init                            C:/Freescale_BM_USB_Stack_v5.0/Src/output/twrk70f120m.gcc_arm/debug/usbh/bm/usbh.a(usb_host_cdc_intf.o)
                                                  C:/Freescale_BM_USB_Stack_v5.0/Src/output/twrk70f120m.gcc_arm/debug/usbh/bm/usbh.a(usb_classes.o)
usb_class_cdc_acm_pre_deinit                      C:/Freescale_BM_USB_Stack_v5.0/Src/output/twrk70f120m.gcc_arm/debug/usbh/bm/usbh.a(usb_host_cdc_intf.o)
                                                  C:/Freescale_BM_USB_Stack_v5.0/Src/output/twrk70f120m.gcc_arm/debug/usbh/bm/usbh.a(usb_classes.o)
usb_class_cdc_acm_use_lwevent                     C:/Freescale_BM_USB_Stack_v5.0/Src/output/twrk70f120m.gcc_arm/debug/usbh/bm/usbh.a(usb_host_cdc_intf.o)
usb_class_cdc_bind_acm_interface                  C:/Freescale_BM_USB_Stack_v5.0/Src/output/twrk70f120m.gcc_arm/debug/usbh/bm/usbh.a(usb_host_cdc_intf.o)
usb_class_cdc_bind_data_interfaces                C:/Freescale_BM_USB_Stack_v5.0/Src/output/twrk70f120m.gcc_arm/debug/usbh/bm/usbh.a(usb_host_cdc_intf.o)
usb_class_cdc_data_deinit                         C:/Freescale_BM_USB_Stack_v5.0/Src/output/twrk70f120m.gcc_arm/debug/usbh/bm/usbh.a(usb_host_cdc_intf.o)
                                                  C:/Freescale_BM_USB_Stack_v5.0/Src/output/twrk70f120m.gcc_arm/debug/usbh/bm/usbh.a(usb_classes.o)
usb_class_cdc_data_init                           C:/Freescale_BM_USB_Stack_v5.0/Src/output/twrk70f120m.gcc_arm/debug/usbh/bm/usbh.a(usb_host_cdc_intf.o)
                                                  C:/Freescale_BM_USB_Stack_v5.0/Src/output/twrk70f120m.gcc_arm/debug/usbh/bm/usbh.a(usb_classes.o)
usb_class_cdc_data_pre_deinit                     C:/Freescale_BM_USB_Stack_v5.0/Src/output/twrk70f120m.gcc_arm/debug/usbh/bm/usbh.a(usb_host_cdc_intf.o)
                                                  C:/Freescale_BM_USB_Stack_v5.0/Src/output/twrk70f120m.gcc_arm/debug/usbh/bm/usbh.a(usb_classes.o)
usb_class_cdc_data_use_lwevent                    C:/Freescale_BM_USB_Stack_v5.0/Src/output/twrk70f120m.gcc_arm/debug/usbh/bm/usbh.a(usb_host_cdc_intf.o)
usb_class_cdc_get_acm_descriptors                 C:/Freescale_BM_USB_Stack_v5.0/Src/output/twrk70f120m.gcc_arm/debug/usbh/bm/usbh.a(usb_host_cdc_intf.o)
usb_class_cdc_get_ctrl_descriptor                 C:/Freescale_BM_USB_Stack_v5.0/Src/output/twrk70f120m.gcc_arm/debug/usbh/bm/usbh.a(usb_host_cdc_intf.o)
usb_class_cdc_get_ctrl_interface                  C:/Freescale_BM_USB_Stack_v5.0/Src/output/twrk70f120m.gcc_arm/debug/usbh/bm/usbh.a(usb_host_cdc_intf.o)
usb_class_cdc_get_data_interface                  C:/Freescale_BM_USB_Stack_v5.0/Src/output/twrk70f120m.gcc_arm/debug/usbh/bm/usbh.a(usb_host_cdc_intf.o)
usb_class_cdc_intf_validate                       C:/Freescale_BM_USB_Stack_v5.0/Src/output/twrk70f120m.gcc_arm/debug/usbh/bm/usbh.a(usb_host_cdc_intf.o)
usb_class_cdc_set_acm_descriptors                 C:/Freescale_BM_USB_Stack_v5.0/Src/output/twrk70f120m.gcc_arm/debug/usbh/bm/usbh.a(usb_host_cdc_intf.o)
usb_class_cdc_unbind_acm_interface                C:/Freescale_BM_USB_Stack_v5.0/Src/output/twrk70f120m.gcc_arm/debug/usbh/bm/usbh.a(usb_host_cdc_intf.o)
usb_class_cdc_unbind_data_interfaces              C:/Freescale_BM_USB_Stack_v5.0/Src/output/twrk70f120m.gcc_arm/debug/usbh/bm/usbh.a(usb_host_cdc_intf.o)
usb_class_hid_deinit                              C:/Freescale_BM_USB_Stack_v5.0/Src/output/twrk70f120m.gcc_arm/debug/usbh/bm/usbh.a(usb_host_hid.o)
                                                  C:/Freescale_BM_USB_Stack_v5.0/Src/output/twrk70f120m.gcc_arm/debug/usbh/bm/usbh.a(usb_classes.o)
usb_class_hid_get_descriptor                      C:/Freescale_BM_USB_Stack_v5.0/Src/output/twrk70f120m.gcc_arm/debug/usbh/bm/usbh.a(usb_host_hid.o)
                                                  C:/Freescale_BM_USB_Stack_v5.0/Src/example/host/hid/mouse/bm/make/host_hid_mouse_twrk70f120m/gcc_arm/MK70FN1M0_HOST_Flash_debug/obj/hidmouse.o
usb_class_hid_get_idle                            C:/Freescale_BM_USB_Stack_v5.0/Src/output/twrk70f120m.gcc_arm/debug/usbh/bm/usbh.a(usb_host_hid.o)
usb_class_hid_get_protocol                        C:/Freescale_BM_USB_Stack_v5.0/Src/output/twrk70f120m.gcc_arm/debug/usbh/bm/usbh.a(usb_host_hid.o)
usb_class_hid_get_report                          C:/Freescale_BM_USB_Stack_v5.0/Src/output/twrk70f120m.gcc_arm/debug/usbh/bm/usbh.a(usb_host_hid.o)
usb_class_hid_init                                C:/Freescale_BM_USB_Stack_v5.0/Src/output/twrk70f120m.gcc_arm/debug/usbh/bm/usbh.a(usb_host_hid.o)
                                                  C:/Freescale_BM_USB_Stack_v5.0/Src/output/twrk70f120m.gcc_arm/debug/usbh/bm/usbh.a(usb_classes.o)
usb_class_hid_pre_deinit                          C:/Freescale_BM_USB_Stack_v5.0/Src/output/twrk70f120m.gcc_arm/debug/usbh/bm/usbh.a(usb_host_hid.o)
                                                  C:/Freescale_BM_USB_Stack_v5.0/Src/output/twrk70f120m.gcc_arm/debug/usbh/bm/usbh.a(usb_classes.o)
usb_class_hid_recv_data                           C:/Freescale_BM_USB_Stack_v5.0/Src/output/twrk70f120m.gcc_arm/debug/usbh/bm/usbh.a(usb_host_hid.o)
                                                  C:/Freescale_BM_USB_Stack_v5.0/Src/example/host/hid/mouse/bm/make/host_hid_mouse_twrk70f120m/gcc_arm/MK70FN1M0_HOST_Flash_debug/obj/hidmouse.o
usb_class_hid_set_idle                            C:/Freescale_BM_USB_Stack_v5.0/Src/output/twrk70f120m.gcc_arm/debug/usbh/bm/usbh.a(usb_host_hid.o)
                                                  C:/Freescale_BM_USB_Stack_v5.0/Src/example/host/hid/mouse/bm/make/host_hid_mouse_twrk70f120m/gcc_arm/MK70FN1M0_HOST_Flash_debug/obj/hidmouse.o
usb_class_hid_set_protocol                        C:/Freescale_BM_USB_Stack_v5.0/Src/output/twrk70f120m.gcc_arm/debug/usbh/bm/usbh.a(usb_host_hid.o)
                                                  C:/Freescale_BM_USB_Stack_v5.0/Src/example/host/hid/mouse/bm/make/host_hid_mouse_twrk70f120m/gcc_arm/MK70FN1M0_HOST_Flash_debug/obj/hidmouse.o
usb_class_hid_set_report                          C:/Freescale_BM_USB_Stack_v5.0/Src/output/twrk70f120m.gcc_arm/debug/usbh/bm/usbh.a(usb_host_hid.o)
usb_class_hub_clear_feature                       C:/Freescale_BM_USB_Stack_v5.0/Src/output/twrk70f120m.gcc_arm/debug/usbh/bm/usbh.a(usb_host_hub.o)
usb_class_hub_clear_port_feature                  C:/Freescale_BM_USB_Stack_v5.0/Src/output/twrk70f120m.gcc_arm/debug/usbh/bm/usbh.a(usb_host_hub.o)
                                                  C:/Freescale_BM_USB_Stack_v5.0/Src/output/twrk70f120m.gcc_arm/debug/usbh/bm/usbh.a(usb_host_hub_sm.o)
usb_class_hub_cntrl_callback                      C:/Freescale_BM_USB_Stack_v5.0/Src/output/twrk70f120m.gcc_arm/debug/usbh/bm/usbh.a(usb_host_hub.o)
usb_class_hub_cntrl_common                        C:/Freescale_BM_USB_Stack_v5.0/Src/output/twrk70f120m.gcc_arm/debug/usbh/bm/usbh.a(usb_host_hub.o)
usb_class_hub_deinit                              C:/Freescale_BM_USB_Stack_v5.0/Src/output/twrk70f120m.gcc_arm/debug/usbh/bm/usbh.a(usb_host_hub.o)
                                                  C:/Freescale_BM_USB_Stack_v5.0/Src/output/twrk70f120m.gcc_arm/debug/usbh/bm/usbh.a(usb_classes.o)
usb_class_hub_get_descriptor                      C:/Freescale_BM_USB_Stack_v5.0/Src/output/twrk70f120m.gcc_arm/debug/usbh/bm/usbh.a(usb_host_hub.o)
                                                  C:/Freescale_BM_USB_Stack_v5.0/Src/output/twrk70f120m.gcc_arm/debug/usbh/bm/usbh.a(usb_host_hub_sm.o)
usb_class_hub_get_level                           C:/Freescale_BM_USB_Stack_v5.0/Src/output/twrk70f120m.gcc_arm/debug/usbh/bm/usbh.a(usb_host_hub.o)
usb_class_hub_get_port_status                     C:/Freescale_BM_USB_Stack_v5.0/Src/output/twrk70f120m.gcc_arm/debug/usbh/bm/usbh.a(usb_host_hub.o)
                                                  C:/Freescale_BM_USB_Stack_v5.0/Src/output/twrk70f120m.gcc_arm/debug/usbh/bm/usbh.a(usb_host_hub_sm.o)
usb_class_hub_get_status                          C:/Freescale_BM_USB_Stack_v5.0/Src/output/twrk70f120m.gcc_arm/debug/usbh/bm/usbh.a(usb_host_hub.o)
                                                  C:/Freescale_BM_USB_Stack_v5.0/Src/output/twrk70f120m.gcc_arm/debug/usbh/bm/usbh.a(usb_host_hub_sm.o)
usb_class_hub_init                                C:/Freescale_BM_USB_Stack_v5.0/Src/output/twrk70f120m.gcc_arm/debug/usbh/bm/usbh.a(usb_host_hub.o)
                                                  C:/Freescale_BM_USB_Stack_v5.0/Src/output/twrk70f120m.gcc_arm/debug/usbh/bm/usbh.a(usb_classes.o)
usb_class_hub_int_callback                        C:/Freescale_BM_USB_Stack_v5.0/Src/output/twrk70f120m.gcc_arm/debug/usbh/bm/usbh.a(usb_host_hub.o)
usb_class_hub_pre_deinit                          C:/Freescale_BM_USB_Stack_v5.0/Src/output/twrk70f120m.gcc_arm/debug/usbh/bm/usbh.a(usb_host_hub.o)
                                                  C:/Freescale_BM_USB_Stack_v5.0/Src/output/twrk70f120m.gcc_arm/debug/usbh/bm/usbh.a(usb_classes.o)
usb_class_hub_recv_bitmap                         C:/Freescale_BM_USB_Stack_v5.0/Src/output/twrk70f120m.gcc_arm/debug/usbh/bm/usbh.a(usb_host_hub.o)
                                                  C:/Freescale_BM_USB_Stack_v5.0/Src/output/twrk70f120m.gcc_arm/debug/usbh/bm/usbh.a(usb_host_hub_sm.o)
usb_class_hub_set_port_feature                    C:/Freescale_BM_USB_Stack_v5.0/Src/output/twrk70f120m.gcc_arm/debug/usbh/bm/usbh.a(usb_host_hub.o)
                                                  C:/Freescale_BM_USB_Stack_v5.0/Src/output/twrk70f120m.gcc_arm/debug/usbh/bm/usbh.a(usb_host_hub_sm.o)
usb_class_mass_cancelq                            C:/Freescale_BM_USB_Stack_v5.0/Src/output/twrk70f120m.gcc_arm/debug/usbh/bm/usbh.a(usb_host_msd_queue.o)
                                                  C:/Freescale_BM_USB_Stack_v5.0/Src/output/twrk70f120m.gcc_arm/debug/usbh/bm/usbh.a(usb_host_msd_bo.o)
usb_class_mass_deinit                             C:/Freescale_BM_USB_Stack_v5.0/Src/output/twrk70f120m.gcc_arm/debug/usbh/bm/usbh.a(usb_host_msd_bo.o)
                                                  C:/Freescale_BM_USB_Stack_v5.0/Src/output/twrk70f120m.gcc_arm/debug/usbh/bm/usbh.a(usb_classes.o)
usb_class_mass_deleteq                            C:/Freescale_BM_USB_Stack_v5.0/Src/output/twrk70f120m.gcc_arm/debug/usbh/bm/usbh.a(usb_host_msd_queue.o)
                                                  C:/Freescale_BM_USB_Stack_v5.0/Src/output/twrk70f120m.gcc_arm/debug/usbh/bm/usbh.a(usb_host_msd_bo.o)
usb_class_mass_get_pending_request                C:/Freescale_BM_USB_Stack_v5.0/Src/output/twrk70f120m.gcc_arm/debug/usbh/bm/usbh.a(usb_host_msd_queue.o)
                                                  C:/Freescale_BM_USB_Stack_v5.0/Src/output/twrk70f120m.gcc_arm/debug/usbh/bm/usbh.a(usb_host_msd_bo.o)
usb_class_mass_getmaxlun_bulkonly                 C:/Freescale_BM_USB_Stack_v5.0/Src/output/twrk70f120m.gcc_arm/debug/usbh/bm/usbh.a(usb_host_msd_bo.o)
usb_class_mass_getvidpid                          C:/Freescale_BM_USB_Stack_v5.0/Src/output/twrk70f120m.gcc_arm/debug/usbh/bm/usbh.a(usb_host_msd_bo.o)
usb_class_mass_init                               C:/Freescale_BM_USB_Stack_v5.0/Src/output/twrk70f120m.gcc_arm/debug/usbh/bm/usbh.a(usb_host_msd_bo.o)
                                                  C:/Freescale_BM_USB_Stack_v5.0/Src/output/twrk70f120m.gcc_arm/debug/usbh/bm/usbh.a(usb_classes.o)
usb_class_mass_pre_deinit                         C:/Freescale_BM_USB_Stack_v5.0/Src/output/twrk70f120m.gcc_arm/debug/usbh/bm/usbh.a(usb_host_msd_bo.o)
                                                  C:/Freescale_BM_USB_Stack_v5.0/Src/output/twrk70f120m.gcc_arm/debug/usbh/bm/usbh.a(usb_classes.o)
usb_class_mass_q_init                             C:/Freescale_BM_USB_Stack_v5.0/Src/output/twrk70f120m.gcc_arm/debug/usbh/bm/usbh.a(usb_host_msd_queue.o)
                                                  C:/Freescale_BM_USB_Stack_v5.0/Src/output/twrk70f120m.gcc_arm/debug/usbh/bm/usbh.a(usb_host_msd_bo.o)
usb_class_mass_q_insert                           C:/Freescale_BM_USB_Stack_v5.0/Src/output/twrk70f120m.gcc_arm/debug/usbh/bm/usbh.a(usb_host_msd_queue.o)
                                                  C:/Freescale_BM_USB_Stack_v5.0/Src/output/twrk70f120m.gcc_arm/debug/usbh/bm/usbh.a(usb_host_msd_bo.o)
usb_class_mass_reset_recovery_on_usb              C:/Freescale_BM_USB_Stack_v5.0/Src/output/twrk70f120m.gcc_arm/debug/usbh/bm/usbh.a(usb_host_msd_bo.o)
usb_class_mass_storage_device_command             C:/Freescale_BM_USB_Stack_v5.0/Src/output/twrk70f120m.gcc_arm/debug/usbh/bm/usbh.a(usb_host_msd_bo.o)
usb_class_mass_storage_device_command_cancel      C:/Freescale_BM_USB_Stack_v5.0/Src/output/twrk70f120m.gcc_arm/debug/usbh/bm/usbh.a(usb_host_msd_bo.o)
usb_class_phdc_deinit                             C:/Freescale_BM_USB_Stack_v5.0/Src/output/twrk70f120m.gcc_arm/debug/usbh/bm/usbh.a(usb_host_phdc.o)
                                                  C:/Freescale_BM_USB_Stack_v5.0/Src/output/twrk70f120m.gcc_arm/debug/usbh/bm/usbh.a(usb_classes.o)
usb_class_phdc_init                               C:/Freescale_BM_USB_Stack_v5.0/Src/output/twrk70f120m.gcc_arm/debug/usbh/bm/usbh.a(usb_host_phdc.o)
                                                  C:/Freescale_BM_USB_Stack_v5.0/Src/output/twrk70f120m.gcc_arm/debug/usbh/bm/usbh.a(usb_classes.o)
usb_class_phdc_pre_deinit                         C:/Freescale_BM_USB_Stack_v5.0/Src/output/twrk70f120m.gcc_arm/debug/usbh/bm/usbh.a(usb_host_phdc.o)
                                                  C:/Freescale_BM_USB_Stack_v5.0/Src/output/twrk70f120m.gcc_arm/debug/usbh/bm/usbh.a(usb_classes.o)
usb_class_phdc_recv_data                          C:/Freescale_BM_USB_Stack_v5.0/Src/output/twrk70f120m.gcc_arm/debug/usbh/bm/usbh.a(usb_host_phdc.o)
usb_class_phdc_send_control_request               C:/Freescale_BM_USB_Stack_v5.0/Src/output/twrk70f120m.gcc_arm/debug/usbh/bm/usbh.a(usb_host_phdc.o)
usb_class_phdc_send_data                          C:/Freescale_BM_USB_Stack_v5.0/Src/output/twrk70f120m.gcc_arm/debug/usbh/bm/usbh.a(usb_host_phdc.o)
usb_class_phdc_set_callbacks                      C:/Freescale_BM_USB_Stack_v5.0/Src/output/twrk70f120m.gcc_arm/debug/usbh/bm/usbh.a(usb_host_phdc.o)
usb_host_bus_control                              C:/Freescale_BM_USB_Stack_v5.0/Src/output/twrk70f120m.gcc_arm/debug/usbh/bm/usbh.a(usb_host.o)
usb_host_cancel                                   C:/Freescale_BM_USB_Stack_v5.0/Src/output/twrk70f120m.gcc_arm/debug/usbh/bm/usbh.a(usb_host.o)
                                                  C:/Freescale_BM_USB_Stack_v5.0/Src/output/twrk70f120m.gcc_arm/debug/usbh/bm/usbh.a(usb_host_phdc.o)
                                                  C:/Freescale_BM_USB_Stack_v5.0/Src/output/twrk70f120m.gcc_arm/debug/usbh/bm/usbh.a(usb_host_msd_bo.o)
                                                  C:/Freescale_BM_USB_Stack_v5.0/Src/output/twrk70f120m.gcc_arm/debug/usbh/bm/usbh.a(usb_host_hub.o)
                                                  C:/Freescale_BM_USB_Stack_v5.0/Src/output/twrk70f120m.gcc_arm/debug/usbh/bm/usbh.a(usb_host_cdc_intf.o)
                                                  C:/Freescale_BM_USB_Stack_v5.0/Src/output/twrk70f120m.gcc_arm/debug/usbh/bm/usbh.a(usb_host_audio_intf.o)
                                                  C:/Freescale_BM_USB_Stack_v5.0/Src/output/twrk70f120m.gcc_arm/debug/usbh/bm/usbh.a(usb_host_hid.o)
                                                  C:/Freescale_BM_USB_Stack_v5.0/Src/output/twrk70f120m.gcc_arm/debug/usbh/bm/usbh.a(usb_host_dev_mng.o)
usb_host_close_dev_interface                      C:/Freescale_BM_USB_Stack_v5.0/Src/output/twrk70f120m.gcc_arm/debug/usbh/bm/usbh.a(usb_host.o)
                                                  C:/Freescale_BM_USB_Stack_v5.0/Src/output/twrk70f120m.gcc_arm/debug/usbh/bm/usbh.a(usb_host_hub_sm.o)
                                                  C:/Freescale_BM_USB_Stack_v5.0/Src/example/host/hid/mouse/bm/make/host_hid_mouse_twrk70f120m/gcc_arm/MK70FN1M0_HOST_Flash_debug/obj/hidmouse.o
usb_host_close_pipe                               C:/Freescale_BM_USB_Stack_v5.0/Src/output/twrk70f120m.gcc_arm/debug/usbh/bm/usbh.a(usb_host.o)
                                                  C:/Freescale_BM_USB_Stack_v5.0/Src/output/twrk70f120m.gcc_arm/debug/usbh/bm/usbh.a(usb_host_phdc.o)
                                                  C:/Freescale_BM_USB_Stack_v5.0/Src/output/twrk70f120m.gcc_arm/debug/usbh/bm/usbh.a(usb_host_msd_bo.o)
                                                  C:/Freescale_BM_USB_Stack_v5.0/Src/output/twrk70f120m.gcc_arm/debug/usbh/bm/usbh.a(usb_host_hub.o)
                                                  C:/Freescale_BM_USB_Stack_v5.0/Src/output/twrk70f120m.gcc_arm/debug/usbh/bm/usbh.a(usb_host_cdc_intf.o)
                                                  C:/Freescale_BM_USB_Stack_v5.0/Src/output/twrk70f120m.gcc_arm/debug/usbh/bm/usbh.a(usb_host_audio_intf.o)
                                                  C:/Freescale_BM_USB_Stack_v5.0/Src/output/twrk70f120m.gcc_arm/debug/usbh/bm/usbh.a(usb_host_hid.o)
                                                  C:/Freescale_BM_USB_Stack_v5.0/Src/output/twrk70f120m.gcc_arm/debug/usbh/bm/usbh.a(usb_host_dev_mng.o)
usb_host_deinit                                   C:/Freescale_BM_USB_Stack_v5.0/Src/output/twrk70f120m.gcc_arm/debug/usbh/bm/usbh.a(usb_host.o)
usb_host_dev_mng_attach                           C:/Freescale_BM_USB_Stack_v5.0/Src/output/twrk70f120m.gcc_arm/debug/usbh/bm/usbh.a(usb_host_dev_mng.o)
                                                  C:/Freescale_BM_USB_Stack_v5.0/Src/output/twrk70f120m.gcc_arm/debug/usbh/bm/usbh.a(khci.o)
                                                  C:/Freescale_BM_USB_Stack_v5.0/Src/output/twrk70f120m.gcc_arm/debug/usbh/bm/usbh.a(ehci_host.o)
                                                  C:/Freescale_BM_USB_Stack_v5.0/Src/output/twrk70f120m.gcc_arm/debug/usbh/bm/usbh.a(usb_host_hub_sm.o)
usb_host_dev_mng_check_configuration              C:/Freescale_BM_USB_Stack_v5.0/Src/output/twrk70f120m.gcc_arm/debug/usbh/bm/usbh.a(usb_host_dev_mng.o)
                                                  C:/Freescale_BM_USB_Stack_v5.0/Src/output/twrk70f120m.gcc_arm/debug/usbh/bm/usbh.a(usb_host_ch9.o)
usb_host_dev_mng_detach                           C:/Freescale_BM_USB_Stack_v5.0/Src/output/twrk70f120m.gcc_arm/debug/usbh/bm/usbh.a(usb_host_dev_mng.o)
                                                  C:/Freescale_BM_USB_Stack_v5.0/Src/output/twrk70f120m.gcc_arm/debug/usbh/bm/usbh.a(khci.o)
                                                  C:/Freescale_BM_USB_Stack_v5.0/Src/output/twrk70f120m.gcc_arm/debug/usbh/bm/usbh.a(ehci_host.o)
                                                  C:/Freescale_BM_USB_Stack_v5.0/Src/output/twrk70f120m.gcc_arm/debug/usbh/bm/usbh.a(usb_host_hub_sm.o)
                                                  C:/Freescale_BM_USB_Stack_v5.0/Src/output/twrk70f120m.gcc_arm/debug/usbh/bm/usbh.a(usb_host_ch9.o)
                                                  C:/Freescale_BM_USB_Stack_v5.0/Src/output/twrk70f120m.gcc_arm/debug/usbh/bm/usbh.a(usb_host.o)
usb_host_dev_mng_get_address                      C:/Freescale_BM_USB_Stack_v5.0/Src/output/twrk70f120m.gcc_arm/debug/usbh/bm/usbh.a(usb_host_dev_mng.o)
                                                  C:/Freescale_BM_USB_Stack_v5.0/Src/output/twrk70f120m.gcc_arm/debug/usbh/bm/usbh.a(khci.o)
                                                  C:/Freescale_BM_USB_Stack_v5.0/Src/output/twrk70f120m.gcc_arm/debug/usbh/bm/usbh.a(ehci_host.o)
                                                  C:/Freescale_BM_USB_Stack_v5.0/Src/output/twrk70f120m.gcc_arm/debug/usbh/bm/usbh.a(usb_host_hub_sm.o)
usb_host_dev_mng_get_attach_state                 C:/Freescale_BM_USB_Stack_v5.0/Src/output/twrk70f120m.gcc_arm/debug/usbh/bm/usbh.a(usb_host_dev_mng.o)
                                                  C:/Freescale_BM_USB_Stack_v5.0/Src/output/twrk70f120m.gcc_arm/debug/usbh/bm/usbh.a(khci.o)
usb_host_dev_mng_get_control_pipe                 C:/Freescale_BM_USB_Stack_v5.0/Src/output/twrk70f120m.gcc_arm/debug/usbh/bm/usbh.a(usb_host_dev_mng.o)
                                                  C:/Freescale_BM_USB_Stack_v5.0/Src/output/twrk70f120m.gcc_arm/debug/usbh/bm/usbh.a(usb_host_phdc.o)
                                                  C:/Freescale_BM_USB_Stack_v5.0/Src/output/twrk70f120m.gcc_arm/debug/usbh/bm/usbh.a(usb_host_msd_bo.o)
                                                  C:/Freescale_BM_USB_Stack_v5.0/Src/output/twrk70f120m.gcc_arm/debug/usbh/bm/usbh.a(usb_host_hub.o)
                                                  C:/Freescale_BM_USB_Stack_v5.0/Src/output/twrk70f120m.gcc_arm/debug/usbh/bm/usbh.a(usb_host_hid.o)
usb_host_dev_mng_get_host                         C:/Freescale_BM_USB_Stack_v5.0/Src/output/twrk70f120m.gcc_arm/debug/usbh/bm/usbh.a(usb_host_dev_mng.o)
                                                  C:/Freescale_BM_USB_Stack_v5.0/Src/output/twrk70f120m.gcc_arm/debug/usbh/bm/usbh.a(usb_host_phdc.o)
                                                  C:/Freescale_BM_USB_Stack_v5.0/Src/output/twrk70f120m.gcc_arm/debug/usbh/bm/usbh.a(usb_host_msd_bo.o)
                                                  C:/Freescale_BM_USB_Stack_v5.0/Src/output/twrk70f120m.gcc_arm/debug/usbh/bm/usbh.a(usb_host_hub.o)
                                                  C:/Freescale_BM_USB_Stack_v5.0/Src/output/twrk70f120m.gcc_arm/debug/usbh/bm/usbh.a(usb_host_cdc_intf.o)
                                                  C:/Freescale_BM_USB_Stack_v5.0/Src/output/twrk70f120m.gcc_arm/debug/usbh/bm/usbh.a(usb_host_audio_intf.o)
                                                  C:/Freescale_BM_USB_Stack_v5.0/Src/output/twrk70f120m.gcc_arm/debug/usbh/bm/usbh.a(usb_host_hub_sm.o)
                                                  C:/Freescale_BM_USB_Stack_v5.0/Src/output/twrk70f120m.gcc_arm/debug/usbh/bm/usbh.a(usb_host_hid.o)
                                                  C:/Freescale_BM_USB_Stack_v5.0/Src/output/twrk70f120m.gcc_arm/debug/usbh/bm/usbh.a(usb_host.o)
usb_host_dev_mng_get_hs_hub_no                    C:/Freescale_BM_USB_Stack_v5.0/Src/output/twrk70f120m.gcc_arm/debug/usbh/bm/usbh.a(usb_host_dev_mng.o)
                                                  C:/Freescale_BM_USB_Stack_v5.0/Src/output/twrk70f120m.gcc_arm/debug/usbh/bm/usbh.a(ehci_host.o)
                                                  C:/Freescale_BM_USB_Stack_v5.0/Src/output/twrk70f120m.gcc_arm/debug/usbh/bm/usbh.a(usb_host_hub_sm.o)
usb_host_dev_mng_get_hs_port_no                   C:/Freescale_BM_USB_Stack_v5.0/Src/output/twrk70f120m.gcc_arm/debug/usbh/bm/usbh.a(usb_host_dev_mng.o)
                                                  C:/Freescale_BM_USB_Stack_v5.0/Src/output/twrk70f120m.gcc_arm/debug/usbh/bm/usbh.a(ehci_host.o)
                                                  C:/Freescale_BM_USB_Stack_v5.0/Src/output/twrk70f120m.gcc_arm/debug/usbh/bm/usbh.a(usb_host_hub_sm.o)
usb_host_dev_mng_get_hub_speed                    C:/Freescale_BM_USB_Stack_v5.0/Src/output/twrk70f120m.gcc_arm/debug/usbh/bm/usbh.a(usb_host_dev_mng.o)
                                                  C:/Freescale_BM_USB_Stack_v5.0/Src/output/twrk70f120m.gcc_arm/debug/usbh/bm/usbh.a(ehci_host.o)
                                                  C:/Freescale_BM_USB_Stack_v5.0/Src/output/twrk70f120m.gcc_arm/debug/usbh/bm/usbh.a(usb_host_hub_sm.o)
usb_host_dev_mng_get_hubno                        C:/Freescale_BM_USB_Stack_v5.0/Src/output/twrk70f120m.gcc_arm/debug/usbh/bm/usbh.a(usb_host_dev_mng.o)
                                                  C:/Freescale_BM_USB_Stack_v5.0/Src/output/twrk70f120m.gcc_arm/debug/usbh/bm/usbh.a(ehci_host.o)
                                                  C:/Freescale_BM_USB_Stack_v5.0/Src/output/twrk70f120m.gcc_arm/debug/usbh/bm/usbh.a(usb_host_hub_sm.o)
usb_host_dev_mng_get_interface_info               C:/Freescale_BM_USB_Stack_v5.0/Src/output/twrk70f120m.gcc_arm/debug/usbh/bm/usbh.a(usb_host_dev_mng.o)
                                                  C:/Freescale_BM_USB_Stack_v5.0/Src/output/twrk70f120m.gcc_arm/debug/usbh/bm/usbh.a(usb_host.o)
usb_host_dev_mng_get_level                        C:/Freescale_BM_USB_Stack_v5.0/Src/output/twrk70f120m.gcc_arm/debug/usbh/bm/usbh.a(usb_host_dev_mng.o)
                                                  C:/Freescale_BM_USB_Stack_v5.0/Src/output/twrk70f120m.gcc_arm/debug/usbh/bm/usbh.a(usb_host_hub.o)
                                                  C:/Freescale_BM_USB_Stack_v5.0/Src/output/twrk70f120m.gcc_arm/debug/usbh/bm/usbh.a(khci.o)
                                                  C:/Freescale_BM_USB_Stack_v5.0/Src/output/twrk70f120m.gcc_arm/debug/usbh/bm/usbh.a(usb_host_hub_sm.o)
usb_host_dev_mng_get_pid                          C:/Freescale_BM_USB_Stack_v5.0/Src/output/twrk70f120m.gcc_arm/debug/usbh/bm/usbh.a(usb_host_dev_mng.o)
                                                  C:/Freescale_BM_USB_Stack_v5.0/Src/output/twrk70f120m.gcc_arm/debug/usbh/bm/usbh.a(usb_host_msd_bo.o)
usb_host_dev_mng_get_portno                       C:/Freescale_BM_USB_Stack_v5.0/Src/output/twrk70f120m.gcc_arm/debug/usbh/bm/usbh.a(usb_host_dev_mng.o)
                                                  C:/Freescale_BM_USB_Stack_v5.0/Src/output/twrk70f120m.gcc_arm/debug/usbh/bm/usbh.a(ehci_host.o)
                                                  C:/Freescale_BM_USB_Stack_v5.0/Src/output/twrk70f120m.gcc_arm/debug/usbh/bm/usbh.a(usb_host_hub_sm.o)
usb_host_dev_mng_get_speed                        C:/Freescale_BM_USB_Stack_v5.0/Src/output/twrk70f120m.gcc_arm/debug/usbh/bm/usbh.a(usb_host_dev_mng.o)
                                                  C:/Freescale_BM_USB_Stack_v5.0/Src/output/twrk70f120m.gcc_arm/debug/usbh/bm/usbh.a(khci.o)
                                                  C:/Freescale_BM_USB_Stack_v5.0/Src/output/twrk70f120m.gcc_arm/debug/usbh/bm/usbh.a(ehci_host.o)
                                                  C:/Freescale_BM_USB_Stack_v5.0/Src/output/twrk70f120m.gcc_arm/debug/usbh/bm/usbh.a(usb_host_hub_sm.o)
usb_host_dev_mng_get_vid                          C:/Freescale_BM_USB_Stack_v5.0/Src/output/twrk70f120m.gcc_arm/debug/usbh/bm/usbh.a(usb_host_dev_mng.o)
                                                  C:/Freescale_BM_USB_Stack_v5.0/Src/output/twrk70f120m.gcc_arm/debug/usbh/bm/usbh.a(usb_host_msd_bo.o)
usb_host_dev_mng_parse_configuration_descriptor   C:/Freescale_BM_USB_Stack_v5.0/Src/output/twrk70f120m.gcc_arm/debug/usbh/bm/usbh.a(usb_host_dev_mng.o)
                                                  C:/Freescale_BM_USB_Stack_v5.0/Src/output/twrk70f120m.gcc_arm/debug/usbh/bm/usbh.a(usb_host_ch9.o)
usb_host_dev_mng_pre_detach                       C:/Freescale_BM_USB_Stack_v5.0/Src/output/twrk70f120m.gcc_arm/debug/usbh/bm/usbh.a(usb_host_dev_mng.o)
                                                  C:/Freescale_BM_USB_Stack_v5.0/Src/output/twrk70f120m.gcc_arm/debug/usbh/bm/usbh.a(usb_host_ch9.o)
usb_host_dev_notify                               C:/Freescale_BM_USB_Stack_v5.0/Src/output/twrk70f120m.gcc_arm/debug/usbh/bm/usbh.a(usb_host_dev_mng.o)
                                                  C:/Freescale_BM_USB_Stack_v5.0/Src/output/twrk70f120m.gcc_arm/debug/usbh/bm/usbh.a(usb_host_ch9.o)
                                                  C:/Freescale_BM_USB_Stack_v5.0/Src/output/twrk70f120m.gcc_arm/debug/usbh/bm/usbh.a(usb_host.o)
usb_host_dev_remove                               C:/Freescale_BM_USB_Stack_v5.0/Src/output/twrk70f120m.gcc_arm/debug/usbh/bm/usbh.a(usb_host.o)
usb_host_driver_info_match                        C:/Freescale_BM_USB_Stack_v5.0/Src/output/twrk70f120m.gcc_arm/debug/usbh/bm/usbh.a(usb_host_common.o)
                                                  C:/Freescale_BM_USB_Stack_v5.0/Src/output/twrk70f120m.gcc_arm/debug/usbh/bm/usbh.a(usb_host_dev_mng.o)
usb_host_driver_info_nonzero                      C:/Freescale_BM_USB_Stack_v5.0/Src/output/twrk70f120m.gcc_arm/debug/usbh/bm/usbh.a(usb_host_common.o)
                                                  C:/Freescale_BM_USB_Stack_v5.0/Src/output/twrk70f120m.gcc_arm/debug/usbh/bm/usbh.a(usb_host_dev_mng.o)
                                                  C:/Freescale_BM_USB_Stack_v5.0/Src/output/twrk70f120m.gcc_arm/debug/usbh/bm/usbh.a(usb_host.o)
usb_host_get_class_map                            C:/Freescale_BM_USB_Stack_v5.0/Src/output/twrk70f120m.gcc_arm/debug/usbh/bm/usbh.a(usb_host_common.o)
                                                  C:/Freescale_BM_USB_Stack_v5.0/Src/output/twrk70f120m.gcc_arm/debug/usbh/bm/usbh.a(usb_host.o)
usb_host_get_tr                                   C:/Freescale_BM_USB_Stack_v5.0/Src/output/twrk70f120m.gcc_arm/debug/usbh/bm/usbh.a(usb_host.o)
                                                  C:/Freescale_BM_USB_Stack_v5.0/Src/output/twrk70f120m.gcc_arm/debug/usbh/bm/usbh.a(usb_host_phdc.o)
                                                  C:/Freescale_BM_USB_Stack_v5.0/Src/output/twrk70f120m.gcc_arm/debug/usbh/bm/usbh.a(usb_host_msd_bo.o)
                                                  C:/Freescale_BM_USB_Stack_v5.0/Src/output/twrk70f120m.gcc_arm/debug/usbh/bm/usbh.a(usb_host_hub.o)
                                                  C:/Freescale_BM_USB_Stack_v5.0/Src/output/twrk70f120m.gcc_arm/debug/usbh/bm/usbh.a(usb_host_hid.o)
                                                  C:/Freescale_BM_USB_Stack_v5.0/Src/output/twrk70f120m.gcc_arm/debug/usbh/bm/usbh.a(usb_host_ch9.o)
usb_host_global_handler                           C:/Freescale_BM_USB_Stack_v5.0/Src/output/twrk70f120m.gcc_arm/debug/usbh/bm/usbh.a(khci.o)
usb_host_hid_mouse_ctrl_callback                  C:/Freescale_BM_USB_Stack_v5.0/Src/example/host/hid/mouse/bm/make/host_hid_mouse_twrk70f120m/gcc_arm/MK70FN1M0_HOST_Flash_debug/obj/hidmouse.o
usb_host_hid_mouse_event                          C:/Freescale_BM_USB_Stack_v5.0/Src/example/host/hid/mouse/bm/make/host_hid_mouse_twrk70f120m/gcc_arm/MK70FN1M0_HOST_Flash_debug/obj/hidmouse.o
usb_host_hid_mouse_recv_callback                  C:/Freescale_BM_USB_Stack_v5.0/Src/example/host/hid/mouse/bm/make/host_hid_mouse_twrk70f120m/gcc_arm/MK70FN1M0_HOST_Flash_debug/obj/hidmouse.o
usb_host_hid_unsupported_device_event             C:/Freescale_BM_USB_Stack_v5.0/Src/example/host/hid/mouse/bm/make/host_hid_mouse_twrk70f120m/gcc_arm/MK70FN1M0_HOST_Flash_debug/obj/hidmouse.o
usb_host_hub_Port_Reset                           C:/Freescale_BM_USB_Stack_v5.0/Src/output/twrk70f120m.gcc_arm/debug/usbh/bm/usbh.a(usb_host_hub_sm.o)
                                                  C:/Freescale_BM_USB_Stack_v5.0/Src/output/twrk70f120m.gcc_arm/debug/usbh/bm/usbh.a(usb_host_ch9.o)
                                                  C:/Freescale_BM_USB_Stack_v5.0/Src/output/twrk70f120m.gcc_arm/debug/usbh/bm/usbh.a(usb_host.o)
usb_host_hub_destroy_instance                     C:/Freescale_BM_USB_Stack_v5.0/Src/output/twrk70f120m.gcc_arm/debug/usbh/bm/usbh.a(usb_host_hub_sm.o)
usb_host_hub_device_event                         C:/Freescale_BM_USB_Stack_v5.0/Src/output/twrk70f120m.gcc_arm/debug/usbh/bm/usbh.a(usb_host_hub_sm.o)
                                                  C:/Freescale_BM_USB_Stack_v5.0/Src/example/host/hid/mouse/bm/make/host_hid_mouse_twrk70f120m/gcc_arm/MK70FN1M0_HOST_Flash_debug/obj/hidmouse.o
usb_host_hub_device_sm                            C:/Freescale_BM_USB_Stack_v5.0/Src/output/twrk70f120m.gcc_arm/debug/usbh/bm/usbh.a(usb_host_hub_sm.o)
usb_host_hub_get_instance                         C:/Freescale_BM_USB_Stack_v5.0/Src/output/twrk70f120m.gcc_arm/debug/usbh/bm/usbh.a(usb_host_hub_sm.o)
usb_host_init                                     C:/Freescale_BM_USB_Stack_v5.0/Src/output/twrk70f120m.gcc_arm/debug/usbh/bm/usbh.a(usb_host.o)
                                                  C:/Freescale_BM_USB_Stack_v5.0/Src/example/host/hid/mouse/bm/make/host_hid_mouse_twrk70f120m/gcc_arm/MK70FN1M0_HOST_Flash_debug/obj/hidmouse.o
usb_host_open_dev_interface                       C:/Freescale_BM_USB_Stack_v5.0/Src/output/twrk70f120m.gcc_arm/debug/usbh/bm/usbh.a(usb_host.o)
                                                  C:/Freescale_BM_USB_Stack_v5.0/Src/output/twrk70f120m.gcc_arm/debug/usbh/bm/usbh.a(usb_host_hub_sm.o)
                                                  C:/Freescale_BM_USB_Stack_v5.0/Src/example/host/hid/mouse/bm/make/host_hid_mouse_twrk70f120m/gcc_arm/MK70FN1M0_HOST_Flash_debug/obj/hidmouse.o
usb_host_open_pipe                                C:/Freescale_BM_USB_Stack_v5.0/Src/output/twrk70f120m.gcc_arm/debug/usbh/bm/usbh.a(usb_host.o)
                                                  C:/Freescale_BM_USB_Stack_v5.0/Src/output/twrk70f120m.gcc_arm/debug/usbh/bm/usbh.a(usb_host_phdc.o)
                                                  C:/Freescale_BM_USB_Stack_v5.0/Src/output/twrk70f120m.gcc_arm/debug/usbh/bm/usbh.a(usb_host_msd_bo.o)
                                                  C:/Freescale_BM_USB_Stack_v5.0/Src/output/twrk70f120m.gcc_arm/debug/usbh/bm/usbh.a(usb_host_hub.o)
                                                  C:/Freescale_BM_USB_Stack_v5.0/Src/output/twrk70f120m.gcc_arm/debug/usbh/bm/usbh.a(usb_host_cdc_intf.o)
                                                  C:/Freescale_BM_USB_Stack_v5.0/Src/output/twrk70f120m.gcc_arm/debug/usbh/bm/usbh.a(usb_host_audio_intf.o)
                                                  C:/Freescale_BM_USB_Stack_v5.0/Src/output/twrk70f120m.gcc_arm/debug/usbh/bm/usbh.a(usb_host_hid.o)
                                                  C:/Freescale_BM_USB_Stack_v5.0/Src/output/twrk70f120m.gcc_arm/debug/usbh/bm/usbh.a(usb_host_dev_mng.o)
usb_host_recv_data                                C:/Freescale_BM_USB_Stack_v5.0/Src/output/twrk70f120m.gcc_arm/debug/usbh/bm/usbh.a(usb_host.o)
                                                  C:/Freescale_BM_USB_Stack_v5.0/Src/output/twrk70f120m.gcc_arm/debug/usbh/bm/usbh.a(usb_host_phdc.o)
                                                  C:/Freescale_BM_USB_Stack_v5.0/Src/output/twrk70f120m.gcc_arm/debug/usbh/bm/usbh.a(usb_host_msd_bo.o)
                                                  C:/Freescale_BM_USB_Stack_v5.0/Src/output/twrk70f120m.gcc_arm/debug/usbh/bm/usbh.a(usb_host_hub.o)
                                                  C:/Freescale_BM_USB_Stack_v5.0/Src/output/twrk70f120m.gcc_arm/debug/usbh/bm/usbh.a(usb_host_hid.o)
usb_host_register_ch9_callback                    C:/Freescale_BM_USB_Stack_v5.0/Src/output/twrk70f120m.gcc_arm/debug/usbh/bm/usbh.a(usb_host.o)
                                                  C:/Freescale_BM_USB_Stack_v5.0/Src/output/twrk70f120m.gcc_arm/debug/usbh/bm/usbh.a(usb_host_msd_bo.o)
usb_host_register_driver_info                     C:/Freescale_BM_USB_Stack_v5.0/Src/output/twrk70f120m.gcc_arm/debug/usbh/bm/usbh.a(usb_host.o)
                                                  C:/Freescale_BM_USB_Stack_v5.0/Src/example/host/hid/mouse/bm/make/host_hid_mouse_twrk70f120m/gcc_arm/MK70FN1M0_HOST_Flash_debug/obj/hidmouse.o
usb_host_register_service                         C:/Freescale_BM_USB_Stack_v5.0/Src/output/twrk70f120m.gcc_arm/debug/usbh/bm/usbh.a(usb_host.o)
usb_host_register_unsupported_device_notify       C:/Freescale_BM_USB_Stack_v5.0/Src/output/twrk70f120m.gcc_arm/debug/usbh/bm/usbh.a(usb_host.o)
                                                  C:/Freescale_BM_USB_Stack_v5.0/Src/example/host/hid/mouse/bm/make/host_hid_mouse_twrk70f120m/gcc_arm/MK70FN1M0_HOST_Flash_debug/obj/hidmouse.o
usb_host_release_tr                               C:/Freescale_BM_USB_Stack_v5.0/Src/output/twrk70f120m.gcc_arm/debug/usbh/bm/usbh.a(usb_host.o)
                                                  C:/Freescale_BM_USB_Stack_v5.0/Src/output/twrk70f120m.gcc_arm/debug/usbh/bm/usbh.a(usb_host_phdc.o)
                                                  C:/Freescale_BM_USB_Stack_v5.0/Src/output/twrk70f120m.gcc_arm/debug/usbh/bm/usbh.a(usb_host_msd_bo.o)
                                                  C:/Freescale_BM_USB_Stack_v5.0/Src/output/twrk70f120m.gcc_arm/debug/usbh/bm/usbh.a(usb_host_hub.o)
                                                  C:/Freescale_BM_USB_Stack_v5.0/Src/output/twrk70f120m.gcc_arm/debug/usbh/bm/usbh.a(usb_host_hid.o)
                                                  C:/Freescale_BM_USB_Stack_v5.0/Src/output/twrk70f120m.gcc_arm/debug/usbh/bm/usbh.a(usb_host_ch9.o)
usb_host_send_data                                C:/Freescale_BM_USB_Stack_v5.0/Src/output/twrk70f120m.gcc_arm/debug/usbh/bm/usbh.a(usb_host.o)
                                                  C:/Freescale_BM_USB_Stack_v5.0/Src/output/twrk70f120m.gcc_arm/debug/usbh/bm/usbh.a(usb_host_phdc.o)
                                                  C:/Freescale_BM_USB_Stack_v5.0/Src/output/twrk70f120m.gcc_arm/debug/usbh/bm/usbh.a(usb_host_msd_bo.o)
usb_host_send_setup                               C:/Freescale_BM_USB_Stack_v5.0/Src/output/twrk70f120m.gcc_arm/debug/usbh/bm/usbh.a(usb_host.o)
                                                  C:/Freescale_BM_USB_Stack_v5.0/Src/output/twrk70f120m.gcc_arm/debug/usbh/bm/usbh.a(usb_host_phdc.o)
                                                  C:/Freescale_BM_USB_Stack_v5.0/Src/output/twrk70f120m.gcc_arm/debug/usbh/bm/usbh.a(usb_host_msd_bo.o)
                                                  C:/Freescale_BM_USB_Stack_v5.0/Src/output/twrk70f120m.gcc_arm/debug/usbh/bm/usbh.a(usb_host_hub.o)
                                                  C:/Freescale_BM_USB_Stack_v5.0/Src/output/twrk70f120m.gcc_arm/debug/usbh/bm/usbh.a(usb_host_hid.o)
                                                  C:/Freescale_BM_USB_Stack_v5.0/Src/output/twrk70f120m.gcc_arm/debug/usbh/bm/usbh.a(usb_host_ch9.o)
usb_host_unregister_ch9_callback                  C:/Freescale_BM_USB_Stack_v5.0/Src/output/twrk70f120m.gcc_arm/debug/usbh/bm/usbh.a(usb_host.o)
                                                  C:/Freescale_BM_USB_Stack_v5.0/Src/output/twrk70f120m.gcc_arm/debug/usbh/bm/usbh.a(usb_host_msd_bo.o)
usb_host_unregister_service                       C:/Freescale_BM_USB_Stack_v5.0/Src/output/twrk70f120m.gcc_arm/debug/usbh/bm/usbh.a(usb_host.o)
usb_hostdev_validate                              C:/Freescale_BM_USB_Stack_v5.0/Src/output/twrk70f120m.gcc_arm/debug/usbh/bm/usbh.a(usb_host_common.o)
                                                  C:/Freescale_BM_USB_Stack_v5.0/Src/output/twrk70f120m.gcc_arm/debug/usbh/bm/usbh.a(usb_host_audio_intf.o)
                                                  C:/Freescale_BM_USB_Stack_v5.0/Src/output/twrk70f120m.gcc_arm/debug/usbh/bm/usbh.a(usb_host_ch9.o)
                                                  C:/Freescale_BM_USB_Stack_v5.0/Src/output/twrk70f120m.gcc_arm/debug/usbh/bm/usbh.a(usb_host.o)
